
microcontroller.elf:     file format elf32-avr

Sections:
Idx Name          Size      VMA       LMA       File off  Algn
  0 .data         00000292  00800100  00002632  000026c6  2**0
                  CONTENTS, ALLOC, LOAD, DATA
  1 .text         00002632  00000000  00000000  00000094  2**1
                  CONTENTS, ALLOC, LOAD, READONLY, CODE
  2 .bss          00000056  00800392  00800392  00002958  2**0
                  ALLOC
  3 .comment      0000005c  00000000  00000000  00002958  2**0
                  CONTENTS, READONLY
  4 .debug_aranges 00000430  00000000  00000000  000029b4  2**0
                  CONTENTS, READONLY, DEBUGGING
  5 .debug_info   00004baa  00000000  00000000  00002de4  2**0
                  CONTENTS, READONLY, DEBUGGING
  6 .debug_abbrev 00001bab  00000000  00000000  0000798e  2**0
                  CONTENTS, READONLY, DEBUGGING
  7 .debug_line   0000177d  00000000  00000000  00009539  2**0
                  CONTENTS, READONLY, DEBUGGING
  8 .debug_frame  00000bbc  00000000  00000000  0000acb8  2**2
                  CONTENTS, READONLY, DEBUGGING
  9 .debug_str    00000cfc  00000000  00000000  0000b874  2**0
                  CONTENTS, READONLY, DEBUGGING
 10 .debug_loc    00002ad9  00000000  00000000  0000c570  2**0
                  CONTENTS, READONLY, DEBUGGING
 11 .debug_ranges 00000368  00000000  00000000  0000f049  2**0
                  CONTENTS, READONLY, DEBUGGING

Disassembly of section .text:

00000000 <__vectors>:
       0:	0c 94 e4 01 	jmp	0x3c8	; 0x3c8 <__ctors_end>
       4:	0c 94 89 02 	jmp	0x512	; 0x512 <__vector_1>
       8:	0c 94 01 02 	jmp	0x402	; 0x402 <__bad_interrupt>
       c:	0c 94 01 02 	jmp	0x402	; 0x402 <__bad_interrupt>
      10:	0c 94 01 02 	jmp	0x402	; 0x402 <__bad_interrupt>
      14:	0c 94 01 02 	jmp	0x402	; 0x402 <__bad_interrupt>
      18:	0c 94 01 02 	jmp	0x402	; 0x402 <__bad_interrupt>
      1c:	0c 94 01 02 	jmp	0x402	; 0x402 <__bad_interrupt>
      20:	0c 94 01 02 	jmp	0x402	; 0x402 <__bad_interrupt>
      24:	0c 94 01 02 	jmp	0x402	; 0x402 <__bad_interrupt>
      28:	0c 94 01 02 	jmp	0x402	; 0x402 <__bad_interrupt>
      2c:	0c 94 01 02 	jmp	0x402	; 0x402 <__bad_interrupt>
      30:	0c 94 01 02 	jmp	0x402	; 0x402 <__bad_interrupt>
      34:	0c 94 01 02 	jmp	0x402	; 0x402 <__bad_interrupt>
      38:	0c 94 01 02 	jmp	0x402	; 0x402 <__bad_interrupt>
      3c:	0c 94 01 02 	jmp	0x402	; 0x402 <__bad_interrupt>
      40:	0c 94 01 02 	jmp	0x402	; 0x402 <__bad_interrupt>
      44:	0c 94 01 02 	jmp	0x402	; 0x402 <__bad_interrupt>
      48:	0c 94 01 02 	jmp	0x402	; 0x402 <__bad_interrupt>
      4c:	0c 94 01 02 	jmp	0x402	; 0x402 <__bad_interrupt>
      50:	0c 94 01 02 	jmp	0x402	; 0x402 <__bad_interrupt>
      54:	0c 94 01 02 	jmp	0x402	; 0x402 <__bad_interrupt>
      58:	0c 94 01 02 	jmp	0x402	; 0x402 <__bad_interrupt>
      5c:	0c 94 01 02 	jmp	0x402	; 0x402 <__bad_interrupt>
      60:	0c 94 01 02 	jmp	0x402	; 0x402 <__bad_interrupt>
      64:	0c 94 01 02 	jmp	0x402	; 0x402 <__bad_interrupt>
      68:	0c 94 01 02 	jmp	0x402	; 0x402 <__bad_interrupt>
      6c:	0c 94 01 02 	jmp	0x402	; 0x402 <__bad_interrupt>

00000070 <LETTERS_BIG>:
      70:	30 31 32 33 34 35 36 37 38 39 21 3f 51 57 45 52     0123456789!?QWER
      80:	54 59 55 49 4f 50 29 2b 41 53 44 46 47 48 4a 4b     TYUIOP)+ASDFGHJK
      90:	4c 28 27 2d 5a 58 43 56 42 4e 4d 2c 2e 3b 3a 23     L('-ZXCVBNM,.;:#

000000a0 <LETTERS_SMALL>:
      a0:	30 31 32 33 34 35 36 37 38 39 21 3f 71 77 65 72     0123456789!?qwer
      b0:	74 79 75 69 6f 70 26 2b 61 73 64 66 67 68 6a 6b     tyuiop&+asdfghjk
      c0:	6c 25 24 2d 7a 78 63 76 62 6e 6d 2c 2e 3b 3a 23     l%$-zxcvbnm,.;:#

000000d0 <font8>:
	...
      d8:	00 06 5f 5f 06 00 00 00 00 07 07 00 07 07 00 00     ..__............
      e8:	14 7f 7f 14 7f 7f 14 00 20 54 54 38 54 54 58 00     ........ TT8TTX.
      f8:	38 64 54 54 4c 38 00 00 20 50 54 55 54 78 40 00     8dTTL8.. PTUTx@.
     108:	60 18 16 11 7f 49 49 00 5c 22 51 49 45 22 1d 00     `....II.\"QIE"..
     118:	60 30 28 25 28 30 60 00 08 2a 3e 1c 1c 3e 2a 08     `0(%(0`..*>..>*.
     128:	08 08 3e 3e 08 08 00 00 00 a0 e0 60 00 00 00 00     ..>>.......`....
     138:	08 08 08 08 08 08 00 00 00 00 60 60 00 00 00 00     ..........``....
     148:	60 30 18 0c 06 03 01 00 3e 7f 59 4d 7f 3e 00 00     `0......>.YM.>..
     158:	42 42 7f 7f 40 40 00 00 62 73 59 49 6f 66 00 00     BB..@@..bsYIof..
     168:	22 63 49 49 7f 36 00 00 18 1c 16 13 7f 7f 10 00     "cII.6..........
     178:	27 67 45 45 7d 39 00 00 3c 7e 4b 49 79 30 00 00     'gEE}9..<~KIy0..
     188:	03 63 71 19 0f 07 00 00 36 7f 49 49 7f 36 00 00     .cq.....6.II.6..
     198:	06 4f 49 69 3f 1e 00 00 00 00 6c 6c 00 00 00 00     .OIi?.....ll....
     1a8:	00 a0 ec 6c 00 00 00 00 08 1c 36 63 41 00 00 00     ...l......6cA...
     1b8:	14 14 14 14 14 14 00 00 00 41 63 36 1c 08 00 00     .........Ac6....
     1c8:	02 03 51 59 0f 06 00 00 3e 7f 41 5d 5d 1f 1e 00     ..QY....>.A]]...
     1d8:	7c 7e 13 13 7e 7c 00 00 41 7f 7f 49 49 7f 36 00     |~..~|..A..II.6.
     1e8:	1c 3e 63 41 41 63 22 00 41 7f 7f 41 63 7f 1c 00     .>cAAc".A..Ac...
     1f8:	41 7f 7f 49 5d 41 63 00 41 7f 7f 49 1d 01 03 00     A..I]Ac.A..I....
     208:	1c 3e 63 41 51 73 72 00 7f 7f 08 08 7f 7f 00 00     .>cAQsr.........
     218:	00 41 7f 7f 41 00 00 00 30 70 40 41 7f 3f 01 00     .A..A...0p@A.?..
     228:	41 7f 7f 08 1c 77 63 00 41 7f 7f 41 40 60 70 00     A....wc.A..A@`p.
     238:	7f 7f 06 0c 06 7f 7f 00 7f 7f 06 0c 18 7f 7f 00     ................
     248:	1c 3e 63 41 63 3e 1c 00 41 7f 7f 49 09 0f 06 00     .>cAc>..A..I....
     258:	1e 3f 21 71 7f 5e 00 00 41 7f 7f 19 39 6f 46 00     .?!q.^..A...9oF.
     268:	26 67 4d 59 7b 32 00 00 03 41 7f 7f 41 03 00 00     &gMY{2...A..A...
     278:	7f 7f 40 40 7f 7f 00 00 1f 3f 60 60 3f 1f 00 00     ..@@.....?``?...
     288:	7f 7f 30 18 30 7f 7f 00 63 77 1c 08 1c 77 63 00     ..0.0...cw...wc.
     298:	07 4f 78 78 4f 07 00 00 67 73 59 4d 47 63 71 00     .OxxO...gsYMGcq.
     2a8:	00 7f 7f 41 41 00 00 00 01 03 06 0c 18 30 60 00     ...AA........0`.
     2b8:	00 41 41 7f 7f 00 00 00 08 0c 06 03 06 0c 08 00     .AA.............
     2c8:	80 80 80 80 80 80 80 80 00 00 03 07 04 00 00 00     ................
     2d8:	20 74 54 54 3c 78 40 00 41 3f 7f 44 44 7c 38 00      tTT<x@.A?.DD|8.
     2e8:	38 7c 44 44 6c 28 00 00 30 78 48 49 3f 7f 40 00     8|DDl(..0xHI?.@.
     2f8:	38 7c 54 54 5c 18 00 00 48 7e 7f 49 03 02 00 00     8|TT\...H~.I....
     308:	98 bc a4 a4 f8 7c 04 00 41 7f 7f 08 04 7c 78 00     .....|..A....|x.
     318:	00 44 7d 7d 40 00 00 00 40 c4 84 fd 7d 00 00 00     .D}}@...@...}...
     328:	41 7f 7f 10 38 6c 44 00 00 41 7f 7f 40 00 00 00     A...8lD..A..@...
     338:	7c 7c 0c 18 0c 7c 78 00 7c 7c 04 04 7c 78 00 00     ||...|x.||..|x..
     348:	38 7c 44 44 7c 38 00 00 84 fc f8 a4 24 3c 18 00     8|DD|8......$<..
     358:	18 3c 24 a4 f8 fc 84 00 44 7c 78 44 1c 18 00 00     .<$.....D|xD....
     368:	48 5c 54 54 74 24 00 00 00 04 3e 7f 44 24 00 00     H\TTt$....>.D$..
     378:	3c 7c 40 40 3c 7c 40 00 1c 3c 60 60 3c 1c 00 00     <|@@<|@..<``<...
     388:	3c 7c 60 30 60 7c 3c 00 44 6c 38 10 38 6c 44 00     <|`0`|<.Dl8.8lD.
     398:	9c bc a0 a0 fc 7c 00 00 4c 64 74 5c 4c 64 00 00     .....|..Ldt\Ld..
     3a8:	08 08 3e 77 41 41 00 00 00 00 00 77 77 00 00 00     ..>wAA.....ww...
     3b8:	41 41 77 3e 08 08 00 00 02 03 01 03 02 03 01 00     AAw>............

000003c8 <__ctors_end>:
     3c8:	11 24       	eor	r1, r1
     3ca:	1f be       	out	0x3f, r1	; 63
     3cc:	cf ef       	ldi	r28, 0xFF	; 255
     3ce:	d4 e0       	ldi	r29, 0x04	; 4
     3d0:	de bf       	out	0x3e, r29	; 62
     3d2:	cd bf       	out	0x3d, r28	; 61

000003d4 <__do_copy_data>:
     3d4:	13 e0       	ldi	r17, 0x03	; 3
     3d6:	a0 e0       	ldi	r26, 0x00	; 0
     3d8:	b1 e0       	ldi	r27, 0x01	; 1
     3da:	e2 e3       	ldi	r30, 0x32	; 50
     3dc:	f6 e2       	ldi	r31, 0x26	; 38
     3de:	02 c0       	rjmp	.+4      	; 0x3e4 <__do_copy_data+0x10>
     3e0:	05 90       	lpm	r0, Z+
     3e2:	0d 92       	st	X+, r0
     3e4:	a2 39       	cpi	r26, 0x92	; 146
     3e6:	b1 07       	cpc	r27, r17
     3e8:	d9 f7       	brne	.-10     	; 0x3e0 <__do_copy_data+0xc>

000003ea <__do_clear_bss>:
     3ea:	23 e0       	ldi	r18, 0x03	; 3
     3ec:	a2 e9       	ldi	r26, 0x92	; 146
     3ee:	b3 e0       	ldi	r27, 0x03	; 3
     3f0:	01 c0       	rjmp	.+2      	; 0x3f4 <.do_clear_bss_start>

000003f2 <.do_clear_bss_loop>:
     3f2:	1d 92       	st	X+, r1

000003f4 <.do_clear_bss_start>:
     3f4:	a8 3e       	cpi	r26, 0xE8	; 232
     3f6:	b2 07       	cpc	r27, r18
     3f8:	e1 f7       	brne	.-8      	; 0x3f2 <.do_clear_bss_loop>
     3fa:	0e 94 b9 0b 	call	0x1772	; 0x1772 <main>
     3fe:	0c 94 17 13 	jmp	0x262e	; 0x262e <_exit>

00000402 <__bad_interrupt>:
     402:	0c 94 00 00 	jmp	0	; 0x0 <__vectors>

00000406 <ADC_init>:
#include <avr/io.h>


void ADC_init(){
	//set interrupt pin to input
	clear_bit(DDRE,DDE0);
     406:	30 98       	cbi	0x06, 0	; 6
     408:	08 95       	ret

0000040a <ADC_read>:
char ADC_read(char channel){
	//start adress for the adc
	volatile char *adc = (char *) 0x1400;

	//invalid input
	if(channel > 3) return 0;
     40a:	84 30       	cpi	r24, 0x04	; 4
     40c:	40 f4       	brcc	.+16     	; 0x41e <ADC_read+0x14>
	
	//choose channel (1-4) - single ended
	*adc = 0x4 + channel; 
     40e:	8c 5f       	subi	r24, 0xFC	; 252
     410:	80 93 00 14 	sts	0x1400, r24
	
	//wait 'til /INTR is low
	while(test_bit(PINE, PINE0));
     414:	28 99       	sbic	0x05, 0	; 5
     416:	fe cf       	rjmp	.-4      	; 0x414 <ADC_read+0xa>
	//reset interrupt
	inter = 0;
	*/

	//return current value
	return *adc; 
     418:	80 91 00 14 	lds	r24, 0x1400
     41c:	08 95       	ret
char ADC_read(char channel){
	//start adress for the adc
	volatile char *adc = (char *) 0x1400;

	//invalid input
	if(channel > 3) return 0;
     41e:	80 e0       	ldi	r24, 0x00	; 0
	inter = 0;
	*/

	//return current value
	return *adc; 
     420:	08 95       	ret

00000422 <brightness_init>:
#include "joy.h"
#include "OLED_driver.h"
#include "defines.h"


void brightness_init(void) {
     422:	0f 93       	push	r16
     424:	1f 93       	push	r17
     426:	cf 93       	push	r28
     428:	df 93       	push	r29
	OLED_reset();
     42a:	0e 94 1e 0c 	call	0x183c	; 0x183c <OLED_reset>
	fprintf(OLED, "%s ", "l_slider:");
     42e:	89 e6       	ldi	r24, 0x69	; 105
     430:	91 e0       	ldi	r25, 0x01	; 1
     432:	9f 93       	push	r25
     434:	8f 93       	push	r24
     436:	03 e7       	ldi	r16, 0x73	; 115
     438:	11 e0       	ldi	r17, 0x01	; 1
     43a:	1f 93       	push	r17
     43c:	0f 93       	push	r16
     43e:	c6 e0       	ldi	r28, 0x06	; 6
     440:	d1 e0       	ldi	r29, 0x01	; 1
     442:	df 93       	push	r29
     444:	cf 93       	push	r28
     446:	0e 94 dd 0f 	call	0x1fba	; 0x1fba <fprintf>
	OLED_pos(1,0);
     44a:	60 e0       	ldi	r22, 0x00	; 0
     44c:	81 e0       	ldi	r24, 0x01	; 1
     44e:	0e 94 ef 0b 	call	0x17de	; 0x17de <OLED_pos>
	fprintf(OLED, "%s ", "sets brightness");
     452:	87 e7       	ldi	r24, 0x77	; 119
     454:	91 e0       	ldi	r25, 0x01	; 1
     456:	9f 93       	push	r25
     458:	8f 93       	push	r24
     45a:	1f 93       	push	r17
     45c:	0f 93       	push	r16
     45e:	df 93       	push	r29
     460:	cf 93       	push	r28
     462:	0e 94 dd 0f 	call	0x1fba	; 0x1fba <fprintf>
	OLED_pos(2,0);
     466:	60 e0       	ldi	r22, 0x00	; 0
     468:	82 e0       	ldi	r24, 0x02	; 2
     46a:	0e 94 ef 0b 	call	0x17de	; 0x17de <OLED_pos>
	fprintf(OLED, "%s ", "l_button: back");
     46e:	87 e8       	ldi	r24, 0x87	; 135
     470:	91 e0       	ldi	r25, 0x01	; 1
     472:	9f 93       	push	r25
     474:	8f 93       	push	r24
     476:	1f 93       	push	r17
     478:	0f 93       	push	r16
     47a:	df 93       	push	r29
     47c:	cf 93       	push	r28
     47e:	0e 94 dd 0f 	call	0x1fba	; 0x1fba <fprintf>
	for (int line = 4; line < 8; line++) {
		OLED_set_line(line);
     482:	84 e0       	ldi	r24, 0x04	; 4
     484:	0e 94 a5 0c 	call	0x194a	; 0x194a <OLED_set_line>
     488:	85 e0       	ldi	r24, 0x05	; 5
     48a:	0e 94 a5 0c 	call	0x194a	; 0x194a <OLED_set_line>
     48e:	86 e0       	ldi	r24, 0x06	; 6
     490:	0e 94 a5 0c 	call	0x194a	; 0x194a <OLED_set_line>
     494:	87 e0       	ldi	r24, 0x07	; 7
     496:	0e 94 a5 0c 	call	0x194a	; 0x194a <OLED_set_line>
     49a:	8d b7       	in	r24, 0x3d	; 61
     49c:	9e b7       	in	r25, 0x3e	; 62
     49e:	42 96       	adiw	r24, 0x12	; 18
     4a0:	0f b6       	in	r0, 0x3f	; 63
     4a2:	f8 94       	cli
     4a4:	9e bf       	out	0x3e, r25	; 62
     4a6:	0f be       	out	0x3f, r0	; 63
     4a8:	8d bf       	out	0x3d, r24	; 61
	}
	
}
     4aa:	df 91       	pop	r29
     4ac:	cf 91       	pop	r28
     4ae:	1f 91       	pop	r17
     4b0:	0f 91       	pop	r16
     4b2:	08 95       	ret

000004b4 <brightness_run>:

void brightness_run(void) {
	brightness_init();
     4b4:	0e 94 11 02 	call	0x422	; 0x422 <brightness_init>
	SLI_position_t slider_position;
	while (!JOY_button_pressed(LEFT_BUTTON)) {
     4b8:	05 c0       	rjmp	.+10     	; 0x4c4 <brightness_run+0x10>
		slider_position = SLI_getPosition();
     4ba:	0e 94 f7 05 	call	0xbee	; 0xbee <SLI_getPosition>
     4be:	86 2f       	mov	r24, r22
		//printf("slider_position (left) %d\n", slider_position.left);
		OLED_set_brightness(slider_position.left); 
     4c0:	0e 94 7e 0c 	call	0x18fc	; 0x18fc <OLED_set_brightness>
}

void brightness_run(void) {
	brightness_init();
	SLI_position_t slider_position;
	while (!JOY_button_pressed(LEFT_BUTTON)) {
     4c4:	80 e0       	ldi	r24, 0x00	; 0
     4c6:	0e 94 7b 05 	call	0xaf6	; 0xaf6 <JOY_button_pressed>
     4ca:	89 2b       	or	r24, r25
     4cc:	b1 f3       	breq	.-20     	; 0x4ba <brightness_run+0x6>
		slider_position = SLI_getPosition();
		//printf("slider_position (left) %d\n", slider_position.left);
		OLED_set_brightness(slider_position.left); 
	}
     4ce:	08 95       	ret

000004d0 <CAN_int_vect>:
	
	CAN_int_vect();
}


void CAN_int_vect() {
     4d0:	cf 93       	push	r28
	uint8_t int_flags = MCP2515_read(MCP_CANINTF);
     4d2:	8c e2       	ldi	r24, 0x2C	; 44
     4d4:	0e 94 da 09 	call	0x13b4	; 0x13b4 <MCP2515_read>
     4d8:	c8 2f       	mov	r28, r24
	if(int_flags & MCP_RX0IF){
     4da:	80 ff       	sbrs	r24, 0
     4dc:	0b c0       	rjmp	.+22     	; 0x4f4 <CAN_int_vect+0x24>
		MCP2515_bit_modify(MCP_CANINTF, MCP_RX0IF, 0x00);
     4de:	40 e0       	ldi	r20, 0x00	; 0
     4e0:	61 e0       	ldi	r22, 0x01	; 1
     4e2:	8c e2       	ldi	r24, 0x2C	; 44
     4e4:	0e 94 0c 0a 	call	0x1418	; 0x1418 <MCP2515_bit_modify>
		flag_RX0 = 1;
     4e8:	21 e0       	ldi	r18, 0x01	; 1
     4ea:	30 e0       	ldi	r19, 0x00	; 0
     4ec:	30 93 95 03 	sts	0x0395, r19
     4f0:	20 93 94 03 	sts	0x0394, r18
	}
			
	if(int_flags & MCP_RX1IF){
     4f4:	c1 ff       	sbrs	r28, 1
     4f6:	0b c0       	rjmp	.+22     	; 0x50e <__stack+0xf>
		MCP2515_bit_modify(MCP_CANINTF, MCP_RX1IF, 0x00);
     4f8:	40 e0       	ldi	r20, 0x00	; 0
     4fa:	62 e0       	ldi	r22, 0x02	; 2
     4fc:	8c e2       	ldi	r24, 0x2C	; 44
     4fe:	0e 94 0c 0a 	call	0x1418	; 0x1418 <MCP2515_bit_modify>
		flag_RX1 = 1;
     502:	81 e0       	ldi	r24, 0x01	; 1
     504:	90 e0       	ldi	r25, 0x00	; 0
     506:	90 93 93 03 	sts	0x0393, r25
     50a:	80 93 92 03 	sts	0x0392, r24
	}
}
     50e:	cf 91       	pop	r28
     510:	08 95       	ret

00000512 <__vector_1>:

volatile int flag_RX0 = 0;
volatile int flag_RX1 = 0;

//interrupt service routine
ISR(INT0_vect){
     512:	1f 92       	push	r1
     514:	0f 92       	push	r0
     516:	0f b6       	in	r0, 0x3f	; 63
     518:	0f 92       	push	r0
     51a:	11 24       	eor	r1, r1
     51c:	2f 93       	push	r18
     51e:	3f 93       	push	r19
     520:	4f 93       	push	r20
     522:	5f 93       	push	r21
     524:	6f 93       	push	r22
     526:	7f 93       	push	r23
     528:	8f 93       	push	r24
     52a:	9f 93       	push	r25
     52c:	af 93       	push	r26
     52e:	bf 93       	push	r27
     530:	ef 93       	push	r30
     532:	ff 93       	push	r31
	
	CAN_int_vect();
     534:	0e 94 68 02 	call	0x4d0	; 0x4d0 <CAN_int_vect>
}
     538:	ff 91       	pop	r31
     53a:	ef 91       	pop	r30
     53c:	bf 91       	pop	r27
     53e:	af 91       	pop	r26
     540:	9f 91       	pop	r25
     542:	8f 91       	pop	r24
     544:	7f 91       	pop	r23
     546:	6f 91       	pop	r22
     548:	5f 91       	pop	r21
     54a:	4f 91       	pop	r20
     54c:	3f 91       	pop	r19
     54e:	2f 91       	pop	r18
     550:	0f 90       	pop	r0
     552:	0f be       	out	0x3f, r0	; 63
     554:	0f 90       	pop	r0
     556:	1f 90       	pop	r1
     558:	18 95       	reti

0000055a <CAN_init>:
//hex to binary is left as an exercise to the reader :)
void CAN_init() {
	
	//enable external interrupt on ATmega162
	//enable interrupt on MCP2515
	MCP2515_init();
     55a:	0e 94 2e 0a 	call	0x145c	; 0x145c <MCP2515_init>
	
	//enable rollover: message will rollover to RX1 if RX0 is full
	//also sets filter for RXB0 to only accept all transmission
	MCP2515_bit_modify(MCP_RXB0CTRL, 0x64, 0xFF);  //0b 0010 0100
     55e:	4f ef       	ldi	r20, 0xFF	; 255
     560:	64 e6       	ldi	r22, 0x64	; 100
     562:	80 e6       	ldi	r24, 0x60	; 96
     564:	0e 94 0c 0a 	call	0x1418	; 0x1418 <MCP2515_bit_modify>

	
	//set filter for RXB1 to accept all transmission
	MCP2515_bit_modify(MCP_RXB1CTRL, 0x60, 0xFF);
     568:	4f ef       	ldi	r20, 0xFF	; 255
     56a:	60 e6       	ldi	r22, 0x60	; 96
     56c:	80 e7       	ldi	r24, 0x70	; 112
     56e:	0e 94 0c 0a 	call	0x1418	; 0x1418 <MCP2515_bit_modify>

	//CANINTE contains the interrupt enable bits for each individual interrupt
	//CANINTF cointains the interrupt flags for each interrupt source. this should be cleared by a bit_modify
	
	//MCP2515_bit_modify(MCP_CANINTE,0x03, 0x03);
	MCP2515_write(MCP_CANINTE, 0x03);
     572:	63 e0       	ldi	r22, 0x03	; 3
     574:	8b e2       	ldi	r24, 0x2B	; 43
     576:	0e 94 ec 09 	call	0x13d8	; 0x13d8 <MCP2515_write>
	//interrupts for RX1, RX0 enabled
	
	//set loopback mode: 0x40
	//later use normal mode 0x00
	MCP2515_bit_modify(MCP_CANCTRL,0xE0, 0x00);
     57a:	40 e0       	ldi	r20, 0x00	; 0
     57c:	60 ee       	ldi	r22, 0xE0	; 224
     57e:	8f e0       	ldi	r24, 0x0F	; 15
     580:	0e 94 0c 0a 	call	0x1418	; 0x1418 <MCP2515_bit_modify>
     584:	08 95       	ret

00000586 <CAN_transmit_complete>:
}


bool CAN_transmit_complete(int transmit_buffer_index) {
	// GOES WRONG IN HERE
	const int address = MCP_TXB0CTRL + BUFFER_LENGTH * transmit_buffer_index;
     586:	03 96       	adiw	r24, 0x03	; 3
	return !(MCP2515_read(address) & MCP_TXREQ);
     588:	82 95       	swap	r24
     58a:	80 7f       	andi	r24, 0xF0	; 240
     58c:	0e 94 da 09 	call	0x13b4	; 0x13b4 <MCP2515_read>
     590:	83 fb       	bst	r24, 3
     592:	88 27       	eor	r24, r24
     594:	80 f9       	bld	r24, 0
}
     596:	91 e0       	ldi	r25, 0x01	; 1
     598:	89 27       	eor	r24, r25
     59a:	08 95       	ret

0000059c <CAN_message_send>:
	
	

}

void CAN_message_send(can_message* msg) {
     59c:	0f 93       	push	r16
     59e:	1f 93       	push	r17
     5a0:	cf 93       	push	r28
     5a2:	df 93       	push	r29
     5a4:	ec 01       	movw	r28, r24
	//if (!CAN_transmit_complete(buffer_numb)){
		//printf("[NODE2][CAN_message_send] Noe har gått galt");
		//return;
	//}
		
	if(!CAN_transmit_complete(0)){
     5a6:	80 e0       	ldi	r24, 0x00	; 0
     5a8:	90 e0       	ldi	r25, 0x00	; 0
     5aa:	0e 94 c3 02 	call	0x586	; 0x586 <CAN_transmit_complete>
     5ae:	88 23       	and	r24, r24
     5b0:	51 f1       	breq	.+84     	; 0x606 <CAN_message_send+0x6a>
		return; //ERROR
	}


	//transmit the correct ID
	uint8_t id_high = msg->id / 8;
     5b2:	08 81       	ld	r16, Y
     5b4:	19 81       	ldd	r17, Y+1	; 0x01
     5b6:	b8 01       	movw	r22, r16
     5b8:	76 95       	lsr	r23
     5ba:	67 95       	ror	r22
     5bc:	76 95       	lsr	r23
     5be:	67 95       	ror	r22
     5c0:	76 95       	lsr	r23
     5c2:	67 95       	ror	r22
	uint8_t id_low = msg->id % 8;
	

	MCP2515_write(MCP_TXB0SIDH + BUFFER_LENGTH * buffer_numb, id_high);
     5c4:	81 e3       	ldi	r24, 0x31	; 49
     5c6:	0e 94 ec 09 	call	0x13d8	; 0x13d8 <MCP2515_write>
	MCP2515_write(MCP_TXB0SIDL + BUFFER_LENGTH * buffer_numb, (id_low << 5));
     5ca:	60 2f       	mov	r22, r16
     5cc:	62 95       	swap	r22
     5ce:	66 0f       	add	r22, r22
     5d0:	60 7e       	andi	r22, 0xE0	; 224
     5d2:	82 e3       	ldi	r24, 0x32	; 50
     5d4:	0e 94 ec 09 	call	0x13d8	; 0x13d8 <MCP2515_write>
	//resten av TXB0SIDL er 0 siden vi har standard identifier

	//transmit the data length
	MCP2515_write(MCP_TXB0DLC + BUFFER_LENGTH * buffer_numb, msg->length);
     5d8:	6a 81       	ldd	r22, Y+2	; 0x02
     5da:	85 e3       	ldi	r24, 0x35	; 53
     5dc:	0e 94 ec 09 	call	0x13d8	; 0x13d8 <MCP2515_write>

	//transmit the data
	for (uint8_t byte = 0; byte < msg->length; byte++) {
     5e0:	8a 81       	ldd	r24, Y+2	; 0x02
     5e2:	88 23       	and	r24, r24
     5e4:	69 f0       	breq	.+26     	; 0x600 <CAN_message_send+0x64>
     5e6:	10 e0       	ldi	r17, 0x00	; 0
		MCP2515_write((MCP_TXB0D0 + byte) + BUFFER_LENGTH * buffer_numb, msg->data[byte]);
     5e8:	fe 01       	movw	r30, r28
     5ea:	e1 0f       	add	r30, r17
     5ec:	f1 1d       	adc	r31, r1
     5ee:	63 81       	ldd	r22, Z+3	; 0x03
     5f0:	86 e3       	ldi	r24, 0x36	; 54
     5f2:	81 0f       	add	r24, r17
     5f4:	0e 94 ec 09 	call	0x13d8	; 0x13d8 <MCP2515_write>

	//transmit the data length
	MCP2515_write(MCP_TXB0DLC + BUFFER_LENGTH * buffer_numb, msg->length);

	//transmit the data
	for (uint8_t byte = 0; byte < msg->length; byte++) {
     5f8:	1f 5f       	subi	r17, 0xFF	; 255
     5fa:	8a 81       	ldd	r24, Y+2	; 0x02
     5fc:	18 17       	cp	r17, r24
     5fe:	a0 f3       	brcs	.-24     	; 0x5e8 <CAN_message_send+0x4c>
		MCP2515_write((MCP_TXB0D0 + byte) + BUFFER_LENGTH * buffer_numb, msg->data[byte]);
	}
	
	uint8_t buffer_states = (uint8_t)(1 << buffer_numb);
	MCP2515_request_to_send(buffer_states);
     600:	81 e0       	ldi	r24, 0x01	; 1
     602:	0e 94 00 0a 	call	0x1400	; 0x1400 <MCP2515_request_to_send>
	
	
}
     606:	df 91       	pop	r29
     608:	cf 91       	pop	r28
     60a:	1f 91       	pop	r17
     60c:	0f 91       	pop	r16
     60e:	08 95       	ret

00000610 <CAN_message_receive>:
	const int address = MCP_TXB0CTRL + BUFFER_LENGTH * transmit_buffer_index;
	return !(MCP2515_read(address) & MCP_TXREQ);
}


void CAN_message_receive(can_message* received_msg){
     610:	df 92       	push	r13
     612:	ef 92       	push	r14
     614:	ff 92       	push	r15
     616:	0f 93       	push	r16
     618:	1f 93       	push	r17
     61a:	cf 93       	push	r28
     61c:	df 93       	push	r29
     61e:	8c 01       	movw	r16, r24
	cli();
     620:	f8 94       	cli
	int receive_buffer_index;
	if(flag_RX0){
     622:	80 91 94 03 	lds	r24, 0x0394
     626:	90 91 95 03 	lds	r25, 0x0395
     62a:	89 2b       	or	r24, r25
     62c:	39 f0       	breq	.+14     	; 0x63c <CAN_message_receive+0x2c>
		receive_buffer_index = 0;
		flag_RX0 = 0;
     62e:	10 92 95 03 	sts	0x0395, r1
     632:	10 92 94 03 	sts	0x0394, r1

void CAN_message_receive(can_message* received_msg){
	cli();
	int receive_buffer_index;
	if(flag_RX0){
		receive_buffer_index = 0;
     636:	c0 e0       	ldi	r28, 0x00	; 0
     638:	d0 e0       	ldi	r29, 0x00	; 0
     63a:	11 c0       	rjmp	.+34     	; 0x65e <CAN_message_receive+0x4e>
		flag_RX0 = 0;
	}
	else if(flag_RX1){
     63c:	80 91 92 03 	lds	r24, 0x0392
     640:	90 91 93 03 	lds	r25, 0x0393
     644:	89 2b       	or	r24, r25
     646:	39 f0       	breq	.+14     	; 0x656 <CAN_message_receive+0x46>
		receive_buffer_index = 1;
		flag_RX1 = 0;
     648:	10 92 93 03 	sts	0x0393, r1
     64c:	10 92 92 03 	sts	0x0392, r1
	if(flag_RX0){
		receive_buffer_index = 0;
		flag_RX0 = 0;
	}
	else if(flag_RX1){
		receive_buffer_index = 1;
     650:	c1 e0       	ldi	r28, 0x01	; 1
     652:	d0 e0       	ldi	r29, 0x00	; 0
     654:	04 c0       	rjmp	.+8      	; 0x65e <CAN_message_receive+0x4e>
		flag_RX1 = 0;
	}
	else{
		received_msg->length = 0;
     656:	f8 01       	movw	r30, r16
     658:	12 82       	std	Z+2, r1	; 0x02
		sei();
     65a:	78 94       	sei
		return;
     65c:	42 c0       	rjmp	.+132    	; 0x6e2 <CAN_message_receive+0xd2>
	}
	
	uint8_t id_high = MCP2515_read(MCP_RXB0SIDH + BUFFER_LENGTH * receive_buffer_index);
     65e:	fc 2e       	mov	r15, r28
     660:	ff 0c       	add	r15, r15
     662:	ff 0c       	add	r15, r15
     664:	ff 0c       	add	r15, r15
     666:	ff 0c       	add	r15, r15
     668:	81 e6       	ldi	r24, 0x61	; 97
     66a:	8f 0d       	add	r24, r15
     66c:	0e 94 da 09 	call	0x13b4	; 0x13b4 <MCP2515_read>
     670:	e8 2e       	mov	r14, r24
	uint8_t id_low = MCP2515_read(MCP_RXB0SIDL + BUFFER_LENGTH * receive_buffer_index);
     672:	82 e6       	ldi	r24, 0x62	; 98
     674:	8f 0d       	add	r24, r15
     676:	0e 94 da 09 	call	0x13b4	; 0x13b4 <MCP2515_read>
	/*
		id_low:	    X XXXX LLL
		id_high: HHHH HHHH
		id:		 HHHH HHHH LLL
	*/
	received_msg->id = (id_high << 3) + id_low; 
     67a:	2e 2d       	mov	r18, r14
     67c:	30 e0       	ldi	r19, 0x00	; 0
     67e:	22 0f       	add	r18, r18
     680:	33 1f       	adc	r19, r19
     682:	22 0f       	add	r18, r18
     684:	33 1f       	adc	r19, r19
     686:	22 0f       	add	r18, r18
     688:	33 1f       	adc	r19, r19
	
	uint8_t id_high = MCP2515_read(MCP_RXB0SIDH + BUFFER_LENGTH * receive_buffer_index);
	uint8_t id_low = MCP2515_read(MCP_RXB0SIDL + BUFFER_LENGTH * receive_buffer_index);
	
	//only want the last 3 bits
	id_low = id_low >> 5;
     68a:	82 95       	swap	r24
     68c:	86 95       	lsr	r24
     68e:	87 70       	andi	r24, 0x07	; 7
	/*
		id_low:	    X XXXX LLL
		id_high: HHHH HHHH
		id:		 HHHH HHHH LLL
	*/
	received_msg->id = (id_high << 3) + id_low; 
     690:	28 0f       	add	r18, r24
     692:	31 1d       	adc	r19, r1
     694:	f8 01       	movw	r30, r16
     696:	31 83       	std	Z+1, r19	; 0x01
     698:	20 83       	st	Z, r18
	
	//read the data length contained in the last 3 bits of the RXBnDLC register
	received_msg->length = (MCP2515_read(MCP_RXB0DLC + BUFFER_LENGTH * receive_buffer_index) % (1<<3));
     69a:	85 e6       	ldi	r24, 0x65	; 101
     69c:	8f 0d       	add	r24, r15
     69e:	0e 94 da 09 	call	0x13b4	; 0x13b4 <MCP2515_read>
     6a2:	87 70       	andi	r24, 0x07	; 7
     6a4:	f8 01       	movw	r30, r16
     6a6:	82 83       	std	Z+2, r24	; 0x02
	
	//read the data
	for (uint8_t byte = 0; byte < received_msg->length; byte++){
     6a8:	88 23       	and	r24, r24
     6aa:	d1 f0       	breq	.+52     	; 0x6e0 <CAN_message_receive+0xd0>
		int address = (MCP_RXB0D0 + byte) + BUFFER_LENGTH * receive_buffer_index;
     6ac:	7e 01       	movw	r14, r28
     6ae:	ee 0c       	add	r14, r14
     6b0:	ff 1c       	adc	r15, r15
     6b2:	ee 0c       	add	r14, r14
     6b4:	ff 1c       	adc	r15, r15
     6b6:	ee 0c       	add	r14, r14
     6b8:	ff 1c       	adc	r15, r15
     6ba:	ee 0c       	add	r14, r14
     6bc:	ff 1c       	adc	r15, r15
	
	//read the data length contained in the last 3 bits of the RXBnDLC register
	received_msg->length = (MCP2515_read(MCP_RXB0DLC + BUFFER_LENGTH * receive_buffer_index) % (1<<3));
	
	//read the data
	for (uint8_t byte = 0; byte < received_msg->length; byte++){
     6be:	d1 2c       	mov	r13, r1
		int address = (MCP_RXB0D0 + byte) + BUFFER_LENGTH * receive_buffer_index;
     6c0:	cd 2d       	mov	r28, r13
     6c2:	d0 e0       	ldi	r29, 0x00	; 0
     6c4:	ce 01       	movw	r24, r28
     6c6:	8a 59       	subi	r24, 0x9A	; 154
     6c8:	9f 4f       	sbci	r25, 0xFF	; 255
		received_msg->data[byte] = MCP2515_read(address);
     6ca:	8e 0d       	add	r24, r14
     6cc:	0e 94 da 09 	call	0x13b4	; 0x13b4 <MCP2515_read>
     6d0:	c0 0f       	add	r28, r16
     6d2:	d1 1f       	adc	r29, r17
     6d4:	8b 83       	std	Y+3, r24	; 0x03
	
	//read the data length contained in the last 3 bits of the RXBnDLC register
	received_msg->length = (MCP2515_read(MCP_RXB0DLC + BUFFER_LENGTH * receive_buffer_index) % (1<<3));
	
	//read the data
	for (uint8_t byte = 0; byte < received_msg->length; byte++){
     6d6:	d3 94       	inc	r13
     6d8:	f8 01       	movw	r30, r16
     6da:	82 81       	ldd	r24, Z+2	; 0x02
     6dc:	d8 16       	cp	r13, r24
     6de:	80 f3       	brcs	.-32     	; 0x6c0 <CAN_message_receive+0xb0>
		int address = (MCP_RXB0D0 + byte) + BUFFER_LENGTH * receive_buffer_index;
		received_msg->data[byte] = MCP2515_read(address);
	}

	sei();
     6e0:	78 94       	sei
}
     6e2:	df 91       	pop	r29
     6e4:	cf 91       	pop	r28
     6e6:	1f 91       	pop	r17
     6e8:	0f 91       	pop	r16
     6ea:	ff 90       	pop	r15
     6ec:	ef 90       	pop	r14
     6ee:	df 90       	pop	r13
     6f0:	08 95       	ret

000006f2 <send_control_input>:
		send_control_input();
		receive_score();
	}
}

void send_control_input(void) {
     6f2:	ff 92       	push	r15
     6f4:	0f 93       	push	r16
     6f6:	1f 93       	push	r17
     6f8:	cf 93       	push	r28
     6fa:	df 93       	push	r29
     6fc:	cd b7       	in	r28, 0x3d	; 61
     6fe:	de b7       	in	r29, 0x3e	; 62
     700:	2b 97       	sbiw	r28, 0x0b	; 11
     702:	0f b6       	in	r0, 0x3f	; 63
     704:	f8 94       	cli
     706:	de bf       	out	0x3e, r29	; 62
     708:	0f be       	out	0x3f, r0	; 63
     70a:	cd bf       	out	0x3d, r28	; 61
	can_message control_input;
	control_input.id = 'c';
     70c:	83 e6       	ldi	r24, 0x63	; 99
     70e:	90 e0       	ldi	r25, 0x00	; 0
     710:	9a 83       	std	Y+2, r25	; 0x02
     712:	89 83       	std	Y+1, r24	; 0x01
	control_input.length = 5;
     714:	85 e0       	ldi	r24, 0x05	; 5
     716:	8b 83       	std	Y+3, r24	; 0x03
	
	//printf("[joy_position]\n");
	JOY_position_t joy_position = JOY_getPosition();
     718:	0e 94 95 05 	call	0xb2a	; 0xb2a <JOY_getPosition>
	control_input.data[JOYSTICK_X] = joy_position.x;
     71c:	6c 83       	std	Y+4, r22	; 0x04
	control_input.data[JOYSTICK_Y] = joy_position.y;
     71e:	8d 83       	std	Y+5, r24	; 0x05
	
	//printf("[sli_position]\n");
	SLI_position_t sli_position = SLI_getPosition();
     720:	0e 94 f7 05 	call	0xbee	; 0xbee <SLI_getPosition>
	control_input.data[SLIDER_LEFT] = sli_position.left;
     724:	6e 83       	std	Y+6, r22	; 0x06
	control_input.data[SLIDER_RIGHT] = sli_position.right;
     726:	8f 83       	std	Y+7, r24	; 0x07
	
	//printf("[BUTTONS]\n");
	int joy_button = JOY_button_pressed(JOY_BUTTON) << JOY_BUTTON;
     728:	82 e0       	ldi	r24, 0x02	; 2
     72a:	0e 94 7b 05 	call	0xaf6	; 0xaf6 <JOY_button_pressed>
     72e:	8c 01       	movw	r16, r24
	int left_button = JOY_button_pressed(LEFT_BUTTON) << LEFT_BUTTON;
     730:	80 e0       	ldi	r24, 0x00	; 0
     732:	0e 94 7b 05 	call	0xaf6	; 0xaf6 <JOY_button_pressed>
     736:	f8 2e       	mov	r15, r24
	int right_button = JOY_button_pressed(RIGHT_BUTTON) << RIGHT_BUTTON;
     738:	81 e0       	ldi	r24, 0x01	; 1
     73a:	0e 94 7b 05 	call	0xaf6	; 0xaf6 <JOY_button_pressed>
	SLI_position_t sli_position = SLI_getPosition();
	control_input.data[SLIDER_LEFT] = sli_position.left;
	control_input.data[SLIDER_RIGHT] = sli_position.right;
	
	//printf("[BUTTONS]\n");
	int joy_button = JOY_button_pressed(JOY_BUTTON) << JOY_BUTTON;
     73e:	00 0f       	add	r16, r16
     740:	11 1f       	adc	r17, r17
     742:	00 0f       	add	r16, r16
     744:	11 1f       	adc	r17, r17
	int left_button = JOY_button_pressed(LEFT_BUTTON) << LEFT_BUTTON;
	int right_button = JOY_button_pressed(RIGHT_BUTTON) << RIGHT_BUTTON;
     746:	88 0f       	add	r24, r24
     748:	99 1f       	adc	r25, r25
	control_input.data[BUTTONS] = joy_button | left_button | right_button;
     74a:	08 2b       	or	r16, r24
     74c:	f0 2a       	or	r15, r16
     74e:	f8 86       	std	Y+8, r15	; 0x08
	
	CAN_message_send(&control_input);
     750:	ce 01       	movw	r24, r28
     752:	01 96       	adiw	r24, 0x01	; 1
     754:	0e 94 ce 02 	call	0x59c	; 0x59c <CAN_message_send>
	//while(!CAN_transmit_complete(TB0));
}
     758:	2b 96       	adiw	r28, 0x0b	; 11
     75a:	0f b6       	in	r0, 0x3f	; 63
     75c:	f8 94       	cli
     75e:	de bf       	out	0x3e, r29	; 62
     760:	0f be       	out	0x3f, r0	; 63
     762:	cd bf       	out	0x3d, r28	; 61
     764:	df 91       	pop	r29
     766:	cf 91       	pop	r28
     768:	1f 91       	pop	r17
     76a:	0f 91       	pop	r16
     76c:	ff 90       	pop	r15
     76e:	08 95       	ret

00000770 <receive_score>:

void receive_score(void){
     770:	cf 93       	push	r28
     772:	df 93       	push	r29
     774:	cd b7       	in	r28, 0x3d	; 61
     776:	de b7       	in	r29, 0x3e	; 62
     778:	2b 97       	sbiw	r28, 0x0b	; 11
     77a:	0f b6       	in	r0, 0x3f	; 63
     77c:	f8 94       	cli
     77e:	de bf       	out	0x3e, r29	; 62
     780:	0f be       	out	0x3f, r0	; 63
     782:	cd bf       	out	0x3d, r28	; 61
	can_message score_message;
	score_message.length = 0;
     784:	1b 82       	std	Y+3, r1	; 0x03
	
	CAN_message_receive(&score_message);
     786:	ce 01       	movw	r24, r28
     788:	01 96       	adiw	r24, 0x01	; 1
     78a:	0e 94 08 03 	call	0x610	; 0x610 <CAN_message_receive>
	//printf("score msg 0: %d \tscore msg 1: %d\n", score_message.data[0], score_message.data[1]);
	if(score_message.length){
     78e:	8b 81       	ldd	r24, Y+3	; 0x03
     790:	88 23       	and	r24, r24
     792:	09 f4       	brne	.+2      	; 0x796 <receive_score+0x26>
     794:	43 c0       	rjmp	.+134    	; 0x81c <receive_score+0xac>
	score = ((uint8_t)(score_message.data[0]) << 8) |(uint8_t) score_message.data[1];
     796:	8c 81       	ldd	r24, Y+4	; 0x04
     798:	90 e0       	ldi	r25, 0x00	; 0
     79a:	98 2f       	mov	r25, r24
     79c:	88 27       	eor	r24, r24
     79e:	2d 81       	ldd	r18, Y+5	; 0x05
     7a0:	82 2b       	or	r24, r18
     7a2:	90 93 99 03 	sts	0x0399, r25
     7a6:	80 93 98 03 	sts	0x0398, r24
	if (score > highscore){
     7aa:	20 91 98 03 	lds	r18, 0x0398
     7ae:	30 91 99 03 	lds	r19, 0x0399
     7b2:	80 91 96 03 	lds	r24, 0x0396
     7b6:	90 91 97 03 	lds	r25, 0x0397
     7ba:	82 17       	cp	r24, r18
     7bc:	93 07       	cpc	r25, r19
     7be:	44 f4       	brge	.+16     	; 0x7d0 <receive_score+0x60>
		highscore = score;
     7c0:	80 91 98 03 	lds	r24, 0x0398
     7c4:	90 91 99 03 	lds	r25, 0x0399
     7c8:	90 93 97 03 	sts	0x0397, r25
     7cc:	80 93 96 03 	sts	0x0396, r24
	}
	OLED_reset_cursor();
     7d0:	0e 94 01 0c 	call	0x1802	; 0x1802 <OLED_reset_cursor>
	//printf("seconds %d.%d\n", score/10, score%10);
	fprintf(OLED, "time: %d.%d    ", score/10, score%10);
     7d4:	80 91 98 03 	lds	r24, 0x0398
     7d8:	90 91 99 03 	lds	r25, 0x0399
     7dc:	e0 91 98 03 	lds	r30, 0x0398
     7e0:	f0 91 99 03 	lds	r31, 0x0399
     7e4:	2a e0       	ldi	r18, 0x0A	; 10
     7e6:	30 e0       	ldi	r19, 0x00	; 0
     7e8:	b9 01       	movw	r22, r18
     7ea:	0e 94 43 0e 	call	0x1c86	; 0x1c86 <__divmodhi4>
     7ee:	9f 93       	push	r25
     7f0:	8f 93       	push	r24
     7f2:	cf 01       	movw	r24, r30
     7f4:	b9 01       	movw	r22, r18
     7f6:	0e 94 43 0e 	call	0x1c86	; 0x1c86 <__divmodhi4>
     7fa:	7f 93       	push	r23
     7fc:	6f 93       	push	r22
     7fe:	86 e9       	ldi	r24, 0x96	; 150
     800:	91 e0       	ldi	r25, 0x01	; 1
     802:	9f 93       	push	r25
     804:	8f 93       	push	r24
     806:	84 e1       	ldi	r24, 0x14	; 20
     808:	91 e0       	ldi	r25, 0x01	; 1
     80a:	9f 93       	push	r25
     80c:	8f 93       	push	r24
     80e:	0e 94 dd 0f 	call	0x1fba	; 0x1fba <fprintf>
     812:	0f b6       	in	r0, 0x3f	; 63
     814:	f8 94       	cli
     816:	de bf       	out	0x3e, r29	; 62
     818:	0f be       	out	0x3f, r0	; 63
     81a:	cd bf       	out	0x3d, r28	; 61
	
	//int ir_disrupted = score_message.data[2];
	//if(ir_disrupted){
	//	set_highscore();
	//}
}
     81c:	2b 96       	adiw	r28, 0x0b	; 11
     81e:	0f b6       	in	r0, 0x3f	; 63
     820:	f8 94       	cli
     822:	de bf       	out	0x3e, r29	; 62
     824:	0f be       	out	0x3f, r0	; 63
     826:	cd bf       	out	0x3d, r28	; 61
     828:	df 91       	pop	r29
     82a:	cf 91       	pop	r28
     82c:	08 95       	ret

0000082e <game_play>:
volatile int highscore = 0;

void send_control_input(void);
void receive_score(void);

void game_play() {
     82e:	cf 93       	push	r28
     830:	df 93       	push	r29
	OLED_reset();
     832:	0e 94 1e 0c 	call	0x183c	; 0x183c <OLED_reset>
	fprintf(OLED, "\n\n%s \n", "lButton: quit");
     836:	86 ea       	ldi	r24, 0xA6	; 166
     838:	91 e0       	ldi	r25, 0x01	; 1
     83a:	9f 93       	push	r25
     83c:	8f 93       	push	r24
     83e:	84 eb       	ldi	r24, 0xB4	; 180
     840:	91 e0       	ldi	r25, 0x01	; 1
     842:	9f 93       	push	r25
     844:	8f 93       	push	r24
     846:	c4 e1       	ldi	r28, 0x14	; 20
     848:	d1 e0       	ldi	r29, 0x01	; 1
     84a:	df 93       	push	r29
     84c:	cf 93       	push	r28
     84e:	0e 94 dd 0f 	call	0x1fba	; 0x1fba <fprintf>
	fprintf(OLED, "%s \n", "jButton: shoot");
     852:	8b eb       	ldi	r24, 0xBB	; 187
     854:	91 e0       	ldi	r25, 0x01	; 1
     856:	9f 93       	push	r25
     858:	8f 93       	push	r24
     85a:	86 eb       	ldi	r24, 0xB6	; 182
     85c:	91 e0       	ldi	r25, 0x01	; 1
     85e:	9f 93       	push	r25
     860:	8f 93       	push	r24
     862:	df 93       	push	r29
     864:	cf 93       	push	r28
     866:	0e 94 dd 0f 	call	0x1fba	; 0x1fba <fprintf>
	#else
		//round up by default
		__ticks_dc = (uint32_t)(ceil(fabs(__tmp)));
	#endif

	__builtin_avr_delay_cycles(__ticks_dc);
     86a:	8f ef       	ldi	r24, 0xFF	; 255
     86c:	9f e7       	ldi	r25, 0x7F	; 127
     86e:	27 e0       	ldi	r18, 0x07	; 7
     870:	81 50       	subi	r24, 0x01	; 1
     872:	90 40       	sbci	r25, 0x00	; 0
     874:	20 40       	sbci	r18, 0x00	; 0
     876:	e1 f7       	brne	.-8      	; 0x870 <game_play+0x42>
     878:	00 c0       	rjmp	.+0      	; 0x87a <game_play+0x4c>
     87a:	00 00       	nop
     87c:	8d b7       	in	r24, 0x3d	; 61
     87e:	9e b7       	in	r25, 0x3e	; 62
     880:	0c 96       	adiw	r24, 0x0c	; 12
     882:	0f b6       	in	r0, 0x3f	; 63
     884:	f8 94       	cli
     886:	9e bf       	out	0x3e, r25	; 62
     888:	0f be       	out	0x3f, r0	; 63
     88a:	8d bf       	out	0x3d, r24	; 61
     88c:	04 c0       	rjmp	.+8      	; 0x896 <game_play+0x68>
	//fprintf(OLED, "%s ", "r_slider: angle\n");
	//fprintf(OLED, "%s ", "x-axis: move\n");
	_delay_ms(500);						//makes sure first press does not trigger solenoid
	while(!JOY_button_pressed(LEFT_BUTTON)){
		send_control_input();
     88e:	0e 94 79 03 	call	0x6f2	; 0x6f2 <send_control_input>
		receive_score();
     892:	0e 94 b8 03 	call	0x770	; 0x770 <receive_score>
	fprintf(OLED, "\n\n%s \n", "lButton: quit");
	fprintf(OLED, "%s \n", "jButton: shoot");
	//fprintf(OLED, "%s ", "r_slider: angle\n");
	//fprintf(OLED, "%s ", "x-axis: move\n");
	_delay_ms(500);						//makes sure first press does not trigger solenoid
	while(!JOY_button_pressed(LEFT_BUTTON)){
     896:	80 e0       	ldi	r24, 0x00	; 0
     898:	0e 94 7b 05 	call	0xaf6	; 0xaf6 <JOY_button_pressed>
     89c:	89 2b       	or	r24, r25
     89e:	b9 f3       	breq	.-18     	; 0x88e <game_play+0x60>
		send_control_input();
		receive_score();
	}
}
     8a0:	df 91       	pop	r29
     8a2:	cf 91       	pop	r28
     8a4:	08 95       	ret

000008a6 <print_highscore>:
	//if(ir_disrupted){
	//	set_highscore();
	//}
}

void print_highscore(){
     8a6:	cf 93       	push	r28
     8a8:	df 93       	push	r29
	OLED_reset();
     8aa:	0e 94 1e 0c 	call	0x183c	; 0x183c <OLED_reset>
	//printf("HIGHSCORE:%d.%d seconds\n", highscore/10, highscore%10);
	fprintf(OLED, "   HIGHSCORE:\n  %d.%d seconds\n", highscore/10, highscore%10);
     8ae:	80 91 96 03 	lds	r24, 0x0396
     8b2:	90 91 97 03 	lds	r25, 0x0397
     8b6:	e0 91 96 03 	lds	r30, 0x0396
     8ba:	f0 91 97 03 	lds	r31, 0x0397
     8be:	2a e0       	ldi	r18, 0x0A	; 10
     8c0:	30 e0       	ldi	r19, 0x00	; 0
     8c2:	b9 01       	movw	r22, r18
     8c4:	0e 94 43 0e 	call	0x1c86	; 0x1c86 <__divmodhi4>
     8c8:	9f 93       	push	r25
     8ca:	8f 93       	push	r24
     8cc:	cf 01       	movw	r24, r30
     8ce:	b9 01       	movw	r22, r18
     8d0:	0e 94 43 0e 	call	0x1c86	; 0x1c86 <__divmodhi4>
     8d4:	7f 93       	push	r23
     8d6:	6f 93       	push	r22
     8d8:	8a ec       	ldi	r24, 0xCA	; 202
     8da:	91 e0       	ldi	r25, 0x01	; 1
     8dc:	9f 93       	push	r25
     8de:	8f 93       	push	r24
     8e0:	c4 e1       	ldi	r28, 0x14	; 20
     8e2:	d1 e0       	ldi	r29, 0x01	; 1
     8e4:	df 93       	push	r29
     8e6:	cf 93       	push	r28
     8e8:	0e 94 dd 0f 	call	0x1fba	; 0x1fba <fprintf>
	fprintf(OLED, "\n\n\n\n %s", "lButton: back");
     8ec:	89 ee       	ldi	r24, 0xE9	; 233
     8ee:	91 e0       	ldi	r25, 0x01	; 1
     8f0:	9f 93       	push	r25
     8f2:	8f 93       	push	r24
     8f4:	87 ef       	ldi	r24, 0xF7	; 247
     8f6:	91 e0       	ldi	r25, 0x01	; 1
     8f8:	9f 93       	push	r25
     8fa:	8f 93       	push	r24
     8fc:	df 93       	push	r29
     8fe:	cf 93       	push	r28
     900:	0e 94 dd 0f 	call	0x1fba	; 0x1fba <fprintf>
	while(!JOY_button_pressed(LEFT_BUTTON)){}
     904:	8d b7       	in	r24, 0x3d	; 61
     906:	9e b7       	in	r25, 0x3e	; 62
     908:	0e 96       	adiw	r24, 0x0e	; 14
     90a:	0f b6       	in	r0, 0x3f	; 63
     90c:	f8 94       	cli
     90e:	9e bf       	out	0x3e, r25	; 62
     910:	0f be       	out	0x3f, r0	; 63
     912:	8d bf       	out	0x3d, r24	; 61
     914:	80 e0       	ldi	r24, 0x00	; 0
     916:	0e 94 7b 05 	call	0xaf6	; 0xaf6 <JOY_button_pressed>
     91a:	89 2b       	or	r24, r25
     91c:	d9 f3       	breq	.-10     	; 0x914 <print_highscore+0x6e>
     91e:	df 91       	pop	r29
     920:	cf 91       	pop	r28
     922:	08 95       	ret

00000924 <JOY_print_calibration_status>:
     924:	cf 93       	push	r28
     926:	df 93       	push	r29
     928:	0e 94 1e 0c 	call	0x183c	; 0x183c <OLED_reset>
     92c:	8f ef       	ldi	r24, 0xFF	; 255
     92e:	91 e0       	ldi	r25, 0x01	; 1
     930:	9f 93       	push	r25
     932:	8f 93       	push	r24
     934:	8e e4       	ldi	r24, 0x4E	; 78
     936:	92 e0       	ldi	r25, 0x02	; 2
     938:	9f 93       	push	r25
     93a:	8f 93       	push	r24
     93c:	c2 e2       	ldi	r28, 0x22	; 34
     93e:	d1 e0       	ldi	r29, 0x01	; 1
     940:	df 93       	push	r29
     942:	cf 93       	push	r28
     944:	0e 94 dd 0f 	call	0x1fba	; 0x1fba <fprintf>
     948:	80 91 aa 03 	lds	r24, 0x03AA
     94c:	1f 92       	push	r1
     94e:	8f 93       	push	r24
     950:	8d e0       	ldi	r24, 0x0D	; 13
     952:	92 e0       	ldi	r25, 0x02	; 2
     954:	9f 93       	push	r25
     956:	8f 93       	push	r24
     958:	df 93       	push	r29
     95a:	cf 93       	push	r28
     95c:	0e 94 dd 0f 	call	0x1fba	; 0x1fba <fprintf>
     960:	80 91 ae 03 	lds	r24, 0x03AE
     964:	1f 92       	push	r1
     966:	8f 93       	push	r24
     968:	89 e1       	ldi	r24, 0x19	; 25
     96a:	92 e0       	ldi	r25, 0x02	; 2
     96c:	9f 93       	push	r25
     96e:	8f 93       	push	r24
     970:	df 93       	push	r29
     972:	cf 93       	push	r28
     974:	0e 94 dd 0f 	call	0x1fba	; 0x1fba <fprintf>
     978:	80 91 ab 03 	lds	r24, 0x03AB
     97c:	1f 92       	push	r1
     97e:	8f 93       	push	r24
     980:	85 e2       	ldi	r24, 0x25	; 37
     982:	92 e0       	ldi	r25, 0x02	; 2
     984:	9f 93       	push	r25
     986:	8f 93       	push	r24
     988:	df 93       	push	r29
     98a:	cf 93       	push	r28
     98c:	0e 94 dd 0f 	call	0x1fba	; 0x1fba <fprintf>
     990:	80 91 af 03 	lds	r24, 0x03AF
     994:	1f 92       	push	r1
     996:	8f 93       	push	r24
     998:	81 e3       	ldi	r24, 0x31	; 49
     99a:	92 e0       	ldi	r25, 0x02	; 2
     99c:	9f 93       	push	r25
     99e:	8f 93       	push	r24
     9a0:	df 93       	push	r29
     9a2:	cf 93       	push	r28
     9a4:	0e 94 dd 0f 	call	0x1fba	; 0x1fba <fprintf>
     9a8:	8d e3       	ldi	r24, 0x3D	; 61
     9aa:	92 e0       	ldi	r25, 0x02	; 2
     9ac:	9f 93       	push	r25
     9ae:	8f 93       	push	r24
     9b0:	8d e4       	ldi	r24, 0x4D	; 77
     9b2:	92 e0       	ldi	r25, 0x02	; 2
     9b4:	9f 93       	push	r25
     9b6:	8f 93       	push	r24
     9b8:	df 93       	push	r29
     9ba:	cf 93       	push	r28
     9bc:	0e 94 dd 0f 	call	0x1fba	; 0x1fba <fprintf>
     9c0:	8d b7       	in	r24, 0x3d	; 61
     9c2:	9e b7       	in	r25, 0x3e	; 62
     9c4:	84 96       	adiw	r24, 0x24	; 36
     9c6:	0f b6       	in	r0, 0x3f	; 63
     9c8:	f8 94       	cli
     9ca:	9e bf       	out	0x3e, r25	; 62
     9cc:	0f be       	out	0x3f, r0	; 63
     9ce:	8d bf       	out	0x3d, r24	; 61
     9d0:	df 91       	pop	r29
     9d2:	cf 91       	pop	r28
     9d4:	08 95       	ret

000009d6 <JOY_calibrate>:
     9d6:	bf 92       	push	r11
     9d8:	cf 92       	push	r12
     9da:	df 92       	push	r13
     9dc:	ef 92       	push	r14
     9de:	ff 92       	push	r15
     9e0:	0f 93       	push	r16
     9e2:	1f 93       	push	r17
     9e4:	cf 93       	push	r28
     9e6:	df 93       	push	r29
     9e8:	2f ef       	ldi	r18, 0xFF	; 255
     9ea:	20 93 aa 03 	sts	0x03AA, r18
     9ee:	20 93 ab 03 	sts	0x03AB, r18
     9f2:	10 92 ae 03 	sts	0x03AE, r1
     9f6:	10 92 af 03 	sts	0x03AF, r1
     9fa:	01 97       	sbiw	r24, 0x01	; 1
     9fc:	e9 f5       	brne	.+122    	; 0xa78 <JOY_calibrate+0xa2>
     9fe:	b2 9b       	sbis	0x16, 2	; 22
     a00:	3b c0       	rjmp	.+118    	; 0xa78 <JOY_calibrate+0xa2>
     a02:	0f 2e       	mov	r0, r31
     a04:	fa ea       	ldi	r31, 0xAA	; 170
     a06:	cf 2e       	mov	r12, r31
     a08:	f3 e0       	ldi	r31, 0x03	; 3
     a0a:	df 2e       	mov	r13, r31
     a0c:	f0 2d       	mov	r31, r0
     a0e:	0f 2e       	mov	r0, r31
     a10:	fb ea       	ldi	r31, 0xAB	; 171
     a12:	ef 2e       	mov	r14, r31
     a14:	f3 e0       	ldi	r31, 0x03	; 3
     a16:	ff 2e       	mov	r15, r31
     a18:	f0 2d       	mov	r31, r0
     a1a:	0e ea       	ldi	r16, 0xAE	; 174
     a1c:	13 e0       	ldi	r17, 0x03	; 3
     a1e:	cf ea       	ldi	r28, 0xAF	; 175
     a20:	d3 e0       	ldi	r29, 0x03	; 3
     a22:	80 e0       	ldi	r24, 0x00	; 0
     a24:	0e 94 05 02 	call	0x40a	; 0x40a <ADC_read>
     a28:	b8 2e       	mov	r11, r24
     a2a:	81 e0       	ldi	r24, 0x01	; 1
     a2c:	0e 94 05 02 	call	0x40a	; 0x40a <ADC_read>
     a30:	f6 01       	movw	r30, r12
     a32:	20 81       	ld	r18, Z
     a34:	9b 2d       	mov	r25, r11
     a36:	b2 16       	cp	r11, r18
     a38:	08 f4       	brcc	.+2      	; 0xa3c <JOY_calibrate+0x66>
     a3a:	92 2f       	mov	r25, r18
     a3c:	f6 01       	movw	r30, r12
     a3e:	90 83       	st	Z, r25
     a40:	f7 01       	movw	r30, r14
     a42:	20 81       	ld	r18, Z
     a44:	98 2f       	mov	r25, r24
     a46:	82 17       	cp	r24, r18
     a48:	08 f4       	brcc	.+2      	; 0xa4c <JOY_calibrate+0x76>
     a4a:	92 2f       	mov	r25, r18
     a4c:	f7 01       	movw	r30, r14
     a4e:	90 83       	st	Z, r25
     a50:	f8 01       	movw	r30, r16
     a52:	90 81       	ld	r25, Z
     a54:	9b 15       	cp	r25, r11
     a56:	08 f4       	brcc	.+2      	; 0xa5a <JOY_calibrate+0x84>
     a58:	b9 2e       	mov	r11, r25
     a5a:	f8 01       	movw	r30, r16
     a5c:	b0 82       	st	Z, r11
     a5e:	98 81       	ld	r25, Y
     a60:	98 17       	cp	r25, r24
     a62:	08 f4       	brcc	.+2      	; 0xa66 <JOY_calibrate+0x90>
     a64:	89 2f       	mov	r24, r25
     a66:	88 83       	st	Y, r24
     a68:	0e 94 92 04 	call	0x924	; 0x924 <JOY_print_calibration_status>
     a6c:	80 e0       	ldi	r24, 0x00	; 0
     a6e:	90 ef       	ldi	r25, 0xF0	; 240
     a70:	01 97       	sbiw	r24, 0x01	; 1
     a72:	f1 f7       	brne	.-4      	; 0xa70 <JOY_calibrate+0x9a>
     a74:	b2 99       	sbic	0x16, 2	; 22
     a76:	d5 cf       	rjmp	.-86     	; 0xa22 <JOY_calibrate+0x4c>
     a78:	e0 91 aa 03 	lds	r30, 0x03AA
     a7c:	f0 e0       	ldi	r31, 0x00	; 0
     a7e:	60 91 ae 03 	lds	r22, 0x03AE
     a82:	70 e0       	ldi	r23, 0x00	; 0
     a84:	9f 01       	movw	r18, r30
     a86:	26 1b       	sub	r18, r22
     a88:	37 0b       	sbc	r19, r23
     a8a:	c9 01       	movw	r24, r18
     a8c:	99 23       	and	r25, r25
     a8e:	0c f4       	brge	.+2      	; 0xa92 <JOY_calibrate+0xbc>
     a90:	01 96       	adiw	r24, 0x01	; 1
     a92:	95 95       	asr	r25
     a94:	87 95       	ror	r24
     a96:	80 93 ac 03 	sts	0x03AC, r24
     a9a:	40 91 ab 03 	lds	r20, 0x03AB
     a9e:	50 e0       	ldi	r21, 0x00	; 0
     aa0:	20 91 af 03 	lds	r18, 0x03AF
     aa4:	30 e0       	ldi	r19, 0x00	; 0
     aa6:	da 01       	movw	r26, r20
     aa8:	a2 1b       	sub	r26, r18
     aaa:	b3 0b       	sbc	r27, r19
     aac:	cd 01       	movw	r24, r26
     aae:	0a f4       	brpl	.+2      	; 0xab2 <JOY_calibrate+0xdc>
     ab0:	01 96       	adiw	r24, 0x01	; 1
     ab2:	95 95       	asr	r25
     ab4:	87 95       	ror	r24
     ab6:	80 93 ad 03 	sts	0x03AD, r24
     aba:	6e 0f       	add	r22, r30
     abc:	7f 1f       	adc	r23, r31
     abe:	75 95       	asr	r23
     ac0:	67 95       	ror	r22
     ac2:	60 93 b0 03 	sts	0x03B0, r22
     ac6:	24 0f       	add	r18, r20
     ac8:	35 1f       	adc	r19, r21
     aca:	35 95       	asr	r19
     acc:	27 95       	ror	r18
     ace:	20 93 b1 03 	sts	0x03B1, r18
     ad2:	df 91       	pop	r29
     ad4:	cf 91       	pop	r28
     ad6:	1f 91       	pop	r17
     ad8:	0f 91       	pop	r16
     ada:	ff 90       	pop	r15
     adc:	ef 90       	pop	r14
     ade:	df 90       	pop	r13
     ae0:	cf 90       	pop	r12
     ae2:	bf 90       	pop	r11
     ae4:	08 95       	ret

00000ae6 <JOY_init>:
     ae6:	c2 9a       	sbi	0x18, 2	; 24
     ae8:	ba 98       	cbi	0x17, 2	; 23
     aea:	20 b7       	in	r18, 0x30	; 48
     aec:	2b 7f       	andi	r18, 0xFB	; 251
     aee:	20 bf       	out	0x30, r18	; 48
     af0:	0e 94 eb 04 	call	0x9d6	; 0x9d6 <JOY_calibrate>
     af4:	08 95       	ret

00000af6 <JOY_button_pressed>:
     af6:	81 30       	cpi	r24, 0x01	; 1
     af8:	41 f0       	breq	.+16     	; 0xb0a <JOY_button_pressed+0x14>
     afa:	18 f0       	brcs	.+6      	; 0xb02 <JOY_button_pressed+0xc>
     afc:	82 30       	cpi	r24, 0x02	; 2
     afe:	51 f0       	breq	.+20     	; 0xb14 <JOY_button_pressed+0x1e>
     b00:	11 c0       	rjmp	.+34     	; 0xb24 <JOY_button_pressed+0x2e>
     b02:	86 b3       	in	r24, 0x16	; 22
     b04:	81 70       	andi	r24, 0x01	; 1
     b06:	90 e0       	ldi	r25, 0x00	; 0
     b08:	08 95       	ret
     b0a:	86 b3       	in	r24, 0x16	; 22
     b0c:	86 95       	lsr	r24
     b0e:	81 70       	andi	r24, 0x01	; 1
     b10:	90 e0       	ldi	r25, 0x00	; 0
     b12:	08 95       	ret
     b14:	86 b3       	in	r24, 0x16	; 22
     b16:	86 95       	lsr	r24
     b18:	86 95       	lsr	r24
     b1a:	91 e0       	ldi	r25, 0x01	; 1
     b1c:	89 27       	eor	r24, r25
     b1e:	81 70       	andi	r24, 0x01	; 1
     b20:	90 e0       	ldi	r25, 0x00	; 0
     b22:	08 95       	ret
     b24:	80 e0       	ldi	r24, 0x00	; 0
     b26:	90 e0       	ldi	r25, 0x00	; 0
     b28:	08 95       	ret

00000b2a <JOY_getPosition>:
     b2a:	1f 93       	push	r17
     b2c:	cf 93       	push	r28
     b2e:	df 93       	push	r29
     b30:	80 e0       	ldi	r24, 0x00	; 0
     b32:	0e 94 05 02 	call	0x40a	; 0x40a <ADC_read>
     b36:	28 2f       	mov	r18, r24
     b38:	30 e0       	ldi	r19, 0x00	; 0
     b3a:	80 91 b0 03 	lds	r24, 0x03B0
     b3e:	28 1b       	sub	r18, r24
     b40:	31 09       	sbc	r19, r1
     b42:	14 e6       	ldi	r17, 0x64	; 100
     b44:	12 9f       	mul	r17, r18
     b46:	c0 01       	movw	r24, r0
     b48:	13 9f       	mul	r17, r19
     b4a:	90 0d       	add	r25, r0
     b4c:	11 24       	eor	r1, r1
     b4e:	60 91 ac 03 	lds	r22, 0x03AC
     b52:	70 e0       	ldi	r23, 0x00	; 0
     b54:	0e 94 43 0e 	call	0x1c86	; 0x1c86 <__divmodhi4>
     b58:	eb 01       	movw	r28, r22
     b5a:	81 e0       	ldi	r24, 0x01	; 1
     b5c:	0e 94 05 02 	call	0x40a	; 0x40a <ADC_read>
     b60:	28 2f       	mov	r18, r24
     b62:	30 e0       	ldi	r19, 0x00	; 0
     b64:	80 91 b1 03 	lds	r24, 0x03B1
     b68:	28 1b       	sub	r18, r24
     b6a:	31 09       	sbc	r19, r1
     b6c:	12 9f       	mul	r17, r18
     b6e:	c0 01       	movw	r24, r0
     b70:	13 9f       	mul	r17, r19
     b72:	90 0d       	add	r25, r0
     b74:	11 24       	eor	r1, r1
     b76:	60 91 ad 03 	lds	r22, 0x03AD
     b7a:	70 e0       	ldi	r23, 0x00	; 0
     b7c:	0e 94 43 0e 	call	0x1c86	; 0x1c86 <__divmodhi4>
     b80:	9b 01       	movw	r18, r22
     b82:	be 01       	movw	r22, r28
     b84:	c9 01       	movw	r24, r18
     b86:	df 91       	pop	r29
     b88:	cf 91       	pop	r28
     b8a:	1f 91       	pop	r17
     b8c:	08 95       	ret

00000b8e <JOY_getDirection>:
     b8e:	0e 94 95 05 	call	0xb2a	; 0xb2a <JOY_getPosition>
     b92:	fb 01       	movw	r30, r22
     b94:	ac 01       	movw	r20, r24
     b96:	9b 01       	movw	r18, r22
     b98:	2c 5f       	subi	r18, 0xFC	; 252
     b9a:	3f 4f       	sbci	r19, 0xFF	; 255
     b9c:	29 30       	cpi	r18, 0x09	; 9
     b9e:	31 05       	cpc	r19, r1
     ba0:	30 f4       	brcc	.+12     	; 0xbae <JOY_getDirection+0x20>
     ba2:	9c 01       	movw	r18, r24
     ba4:	2c 5f       	subi	r18, 0xFC	; 252
     ba6:	3f 4f       	sbci	r19, 0xFF	; 255
     ba8:	29 30       	cpi	r18, 0x09	; 9
     baa:	31 05       	cpc	r19, r1
     bac:	e0 f0       	brcs	.+56     	; 0xbe6 <JOY_getDirection+0x58>
     bae:	db 01       	movw	r26, r22
     bb0:	ff 23       	and	r31, r31
     bb2:	24 f4       	brge	.+8      	; 0xbbc <JOY_getDirection+0x2e>
     bb4:	aa 27       	eor	r26, r26
     bb6:	bb 27       	eor	r27, r27
     bb8:	a6 1b       	sub	r26, r22
     bba:	b7 0b       	sbc	r27, r23
     bbc:	9c 01       	movw	r18, r24
     bbe:	55 23       	and	r21, r21
     bc0:	24 f4       	brge	.+8      	; 0xbca <JOY_getDirection+0x3c>
     bc2:	22 27       	eor	r18, r18
     bc4:	33 27       	eor	r19, r19
     bc6:	28 1b       	sub	r18, r24
     bc8:	39 0b       	sbc	r19, r25
     bca:	2a 17       	cp	r18, r26
     bcc:	3b 07       	cpc	r19, r27
     bce:	34 f4       	brge	.+12     	; 0xbdc <JOY_getDirection+0x4e>
     bd0:	81 e0       	ldi	r24, 0x01	; 1
     bd2:	1e 16       	cp	r1, r30
     bd4:	1f 06       	cpc	r1, r31
     bd6:	54 f0       	brlt	.+20     	; 0xbec <JOY_getDirection+0x5e>
     bd8:	80 e0       	ldi	r24, 0x00	; 0
     bda:	08 95       	ret
     bdc:	14 16       	cp	r1, r20
     bde:	15 06       	cpc	r1, r21
     be0:	24 f4       	brge	.+8      	; 0xbea <JOY_getDirection+0x5c>
     be2:	82 e0       	ldi	r24, 0x02	; 2
     be4:	08 95       	ret
     be6:	84 e0       	ldi	r24, 0x04	; 4
     be8:	08 95       	ret
     bea:	83 e0       	ldi	r24, 0x03	; 3
     bec:	08 95       	ret

00000bee <SLI_getPosition>:
     bee:	cf 93       	push	r28
     bf0:	82 e0       	ldi	r24, 0x02	; 2
     bf2:	0e 94 05 02 	call	0x40a	; 0x40a <ADC_read>
     bf6:	c8 2f       	mov	r28, r24
     bf8:	83 e0       	ldi	r24, 0x03	; 3
     bfa:	0e 94 05 02 	call	0x40a	; 0x40a <ADC_read>
     bfe:	28 2f       	mov	r18, r24
     c00:	6c 2f       	mov	r22, r28
     c02:	70 e0       	ldi	r23, 0x00	; 0
     c04:	82 2f       	mov	r24, r18
     c06:	90 e0       	ldi	r25, 0x00	; 0
     c08:	cf 91       	pop	r28
     c0a:	08 95       	ret

00000c0c <append_char>:


/* PRINT STRING FUNCTION   */

void append_char(char c) {
	int len = strlen(written_string);
     c0c:	e2 eb       	ldi	r30, 0xB2	; 178
     c0e:	f3 e0       	ldi	r31, 0x03	; 3
     c10:	01 90       	ld	r0, Z+
     c12:	00 20       	and	r0, r0
     c14:	e9 f7       	brne	.-6      	; 0xc10 <append_char+0x4>
     c16:	31 97       	sbiw	r30, 0x01	; 1
     c18:	e2 5b       	subi	r30, 0xB2	; 178
     c1a:	f3 40       	sbci	r31, 0x03	; 3
	if (len < MAX_STRING_SIZE){
     c1c:	e8 32       	cpi	r30, 0x28	; 40
     c1e:	f1 05       	cpc	r31, r1
     c20:	6c f4       	brge	.+26     	; 0xc3c <append_char+0x30>
		written_string[len] = c;
     c22:	ee 54       	subi	r30, 0x4E	; 78
     c24:	fc 4f       	sbci	r31, 0xFC	; 252
     c26:	80 83       	st	Z, r24
		written_string[len + 1] = '\0';
     c28:	11 82       	std	Z+1, r1	; 0x01
		string_position++;
     c2a:	80 91 a4 03 	lds	r24, 0x03A4
     c2e:	90 91 a5 03 	lds	r25, 0x03A5
     c32:	01 96       	adiw	r24, 0x01	; 1
     c34:	90 93 a5 03 	sts	0x03A5, r25
     c38:	80 93 a4 03 	sts	0x03A4, r24
     c3c:	08 95       	ret

00000c3e <remove_last_char>:
	
	keyboard_goto(pos.y, pos.x);
}

void remove_last_char() {
	if (strlen(written_string) > 0){
     c3e:	80 91 b2 03 	lds	r24, 0x03B2
     c42:	88 23       	and	r24, r24
     c44:	39 f0       	breq	.+14     	; 0xc54 <remove_last_char+0x16>
		written_string[strlen(written_string) - 1] = '\0';
     c46:	e2 eb       	ldi	r30, 0xB2	; 178
     c48:	f3 e0       	ldi	r31, 0x03	; 3
     c4a:	01 90       	ld	r0, Z+
     c4c:	00 20       	and	r0, r0
     c4e:	e9 f7       	brne	.-6      	; 0xc4a <remove_last_char+0xc>
     c50:	32 97       	sbiw	r30, 0x02	; 2
     c52:	10 82       	st	Z, r1
     c54:	08 95       	ret

00000c56 <keyboard_goto>:

}

// 5 lines x 16 columns
void keyboard_goto(int line, int column) {
	OLED_pos(line + 3, (column+2) * 8);
     c56:	6e 5f       	subi	r22, 0xFE	; 254
     c58:	7f 4f       	sbci	r23, 0xFF	; 255
     c5a:	66 0f       	add	r22, r22
     c5c:	66 0f       	add	r22, r22
     c5e:	66 0f       	add	r22, r22
     c60:	8d 5f       	subi	r24, 0xFD	; 253
     c62:	0e 94 ef 0b 	call	0x17de	; 0x17de <OLED_pos>
     c66:	08 95       	ret

00000c68 <print_string>:
		string_position++;
	}

}

void print_string() {
     c68:	cf 93       	push	r28
     c6a:	df 93       	push	r29
	OLED_reset_cursor();
     c6c:	0e 94 01 0c 	call	0x1802	; 0x1802 <OLED_reset_cursor>
	//char print_string[16];
	//memcpy(print_string, written_string[strlen(written_string)-string_position], 16);
	//fprintf(OLED, "%s", print_string);
	fprintf(OLED, "%s", written_string);
     c70:	62 e3       	ldi	r22, 0x32	; 50
     c72:	71 e0       	ldi	r23, 0x01	; 1
     c74:	82 eb       	ldi	r24, 0xB2	; 178
     c76:	93 e0       	ldi	r25, 0x03	; 3
     c78:	0e 94 21 10 	call	0x2042	; 0x2042 <fputs>
	for (int i = strlen(written_string); i < 16; i++){
     c7c:	c2 eb       	ldi	r28, 0xB2	; 178
     c7e:	d3 e0       	ldi	r29, 0x03	; 3
     c80:	09 90       	ld	r0, Y+
     c82:	00 20       	and	r0, r0
     c84:	e9 f7       	brne	.-6      	; 0xc80 <print_string+0x18>
     c86:	21 97       	sbiw	r28, 0x01	; 1
     c88:	c2 5b       	subi	r28, 0xB2	; 178
     c8a:	d3 40       	sbci	r29, 0x03	; 3
     c8c:	c0 31       	cpi	r28, 0x10	; 16
     c8e:	d1 05       	cpc	r29, r1
     c90:	54 f4       	brge	.+20     	; 0xca6 <print_string+0x3e>
		fprintf(OLED, " ");
     c92:	62 e3       	ldi	r22, 0x32	; 50
     c94:	71 e0       	ldi	r23, 0x01	; 1
     c96:	80 e2       	ldi	r24, 0x20	; 32
     c98:	90 e0       	ldi	r25, 0x00	; 0
     c9a:	0e 94 ef 0f 	call	0x1fde	; 0x1fde <fputc>
	OLED_reset_cursor();
	//char print_string[16];
	//memcpy(print_string, written_string[strlen(written_string)-string_position], 16);
	//fprintf(OLED, "%s", print_string);
	fprintf(OLED, "%s", written_string);
	for (int i = strlen(written_string); i < 16; i++){
     c9e:	21 96       	adiw	r28, 0x01	; 1
     ca0:	c0 31       	cpi	r28, 0x10	; 16
     ca2:	d1 05       	cpc	r29, r1
     ca4:	b1 f7       	brne	.-20     	; 0xc92 <print_string+0x2a>
		fprintf(OLED, " ");
	}
	
	//set block at current pointer position
	int pointer = MIN(strlen(written_string)%16,15)*8;
     ca6:	e2 eb       	ldi	r30, 0xB2	; 178
     ca8:	f3 e0       	ldi	r31, 0x03	; 3
     caa:	01 90       	ld	r0, Z+
     cac:	00 20       	and	r0, r0
     cae:	e9 f7       	brne	.-6      	; 0xcaa <print_string+0x42>
     cb0:	31 97       	sbiw	r30, 0x01	; 1
     cb2:	e2 5b       	subi	r30, 0xB2	; 178
     cb4:	f3 40       	sbci	r31, 0x03	; 3
     cb6:	ef 70       	andi	r30, 0x0F	; 15
     cb8:	ff 27       	eor	r31, r31
     cba:	bf 01       	movw	r22, r30
     cbc:	66 0f       	add	r22, r22
     cbe:	77 1f       	adc	r23, r23
     cc0:	66 0f       	add	r22, r22
     cc2:	77 1f       	adc	r23, r23
     cc4:	66 0f       	add	r22, r22
     cc6:	77 1f       	adc	r23, r23
	OLED_pos(0, pointer);
     cc8:	80 e0       	ldi	r24, 0x00	; 0
     cca:	0e 94 ef 0b 	call	0x17de	; 0x17de <OLED_pos>
	print_fill(8);
     cce:	88 e0       	ldi	r24, 0x08	; 8
     cd0:	90 e0       	ldi	r25, 0x00	; 0
     cd2:	0e 94 e8 0c 	call	0x19d0	; 0x19d0 <print_fill>
	
	blinking_pos_on = 0;
     cd6:	10 92 a3 03 	sts	0x03A3, r1
     cda:	10 92 a2 03 	sts	0x03A2, r1
	
	keyboard_goto(pos.y, pos.x);
     cde:	60 91 9e 03 	lds	r22, 0x039E
     ce2:	70 91 9f 03 	lds	r23, 0x039F
     ce6:	80 91 a0 03 	lds	r24, 0x03A0
     cea:	90 91 a1 03 	lds	r25, 0x03A1
     cee:	0e 94 2b 06 	call	0xc56	; 0xc56 <keyboard_goto>
}
     cf2:	df 91       	pop	r29
     cf4:	cf 91       	pop	r28
     cf6:	08 95       	ret

00000cf8 <keyboard_goto_line>:
void keyboard_goto(int line, int column) {
	OLED_pos(line + 3, (column+2) * 8);
}

void keyboard_goto_line(int line) {
		keyboard_goto(line, 0);
     cf8:	60 e0       	ldi	r22, 0x00	; 0
     cfa:	70 e0       	ldi	r23, 0x00	; 0
     cfc:	0e 94 2b 06 	call	0xc56	; 0xc56 <keyboard_goto>
     d00:	08 95       	ret

00000d02 <keyboard_init>:
}

/* FUNCTION IMPLEMENTATIONS			*/
/************************************/

void keyboard_init() {
     d02:	ef 92       	push	r14
     d04:	ff 92       	push	r15
     d06:	0f 93       	push	r16
     d08:	1f 93       	push	r17
     d0a:	cf 93       	push	r28
     d0c:	df 93       	push	r29
	OLED_reset();
     d0e:	0e 94 1e 0c 	call	0x183c	; 0x183c <OLED_reset>
	written_string[0]='\0';
     d12:	c2 eb       	ldi	r28, 0xB2	; 178
     d14:	d3 e0       	ldi	r29, 0x03	; 3
     d16:	18 82       	st	Y, r1
	print_string();
     d18:	0e 94 34 06 	call	0xc68	; 0xc68 <print_string>
	letters = (char*)LETTERS_SMALL;
     d1c:	80 ea       	ldi	r24, 0xA0	; 160
     d1e:	90 e0       	ldi	r25, 0x00	; 0
     d20:	90 93 31 01 	sts	0x0131, r25
     d24:	80 93 30 01 	sts	0x0130, r24
	keyboard_goto_line(0);
     d28:	80 e0       	ldi	r24, 0x00	; 0
     d2a:	90 e0       	ldi	r25, 0x00	; 0
     d2c:	0e 94 7c 06 	call	0xcf8	; 0xcf8 <keyboard_goto_line>
	pos.x = 0;
     d30:	10 92 9f 03 	sts	0x039F, r1
     d34:	10 92 9e 03 	sts	0x039E, r1
	pos.y = 0;
     d38:	10 92 a1 03 	sts	0x03A1, r1
     d3c:	10 92 a0 03 	sts	0x03A0, r1
	strcpy(written_string, "\0");
     d40:	18 82       	st	Y, r1

	//The first letter is selected by default
	print_char(pgm_read_byte(&letters[0]), INVERSE);
     d42:	e0 91 30 01 	lds	r30, 0x0130
     d46:	f0 91 31 01 	lds	r31, 0x0131
     d4a:	84 91       	lpm	r24, Z
     d4c:	61 e0       	ldi	r22, 0x01	; 1
     d4e:	70 e0       	ldi	r23, 0x00	; 0
     d50:	0e 94 f8 0d 	call	0x1bf0	; 0x1bf0 <print_char>

	//print the rest of the letters
	for (int i = 1; i < NUMB_LETTERS; i++) {
     d54:	c1 e0       	ldi	r28, 0x01	; 1
     d56:	d0 e0       	ldi	r29, 0x00	; 0
		if (i % LINE_LENGTH == 0) {
     d58:	0c e0       	ldi	r16, 0x0C	; 12
     d5a:	10 e0       	ldi	r17, 0x00	; 0
			keyboard_goto_line(++pos.y);
     d5c:	0f 2e       	mov	r0, r31
     d5e:	f0 ea       	ldi	r31, 0xA0	; 160
     d60:	ef 2e       	mov	r14, r31
     d62:	f3 e0       	ldi	r31, 0x03	; 3
     d64:	ff 2e       	mov	r15, r31
     d66:	f0 2d       	mov	r31, r0
     d68:	0e c0       	rjmp	.+28     	; 0xd86 <keyboard_init+0x84>
	//The first letter is selected by default
	print_char(pgm_read_byte(&letters[0]), INVERSE);

	//print the rest of the letters
	for (int i = 1; i < NUMB_LETTERS; i++) {
		if (i % LINE_LENGTH == 0) {
     d6a:	ce 01       	movw	r24, r28
     d6c:	b8 01       	movw	r22, r16
     d6e:	0e 94 43 0e 	call	0x1c86	; 0x1c86 <__divmodhi4>
     d72:	89 2b       	or	r24, r25
     d74:	41 f4       	brne	.+16     	; 0xd86 <keyboard_init+0x84>
			keyboard_goto_line(++pos.y);
     d76:	f7 01       	movw	r30, r14
     d78:	80 81       	ld	r24, Z
     d7a:	91 81       	ldd	r25, Z+1	; 0x01
     d7c:	01 96       	adiw	r24, 0x01	; 1
     d7e:	91 83       	std	Z+1, r25	; 0x01
     d80:	80 83       	st	Z, r24
     d82:	0e 94 7c 06 	call	0xcf8	; 0xcf8 <keyboard_goto_line>
		}
		print_char(pgm_read_byte(&letters[i]), NORMAL);
     d86:	e0 91 30 01 	lds	r30, 0x0130
     d8a:	f0 91 31 01 	lds	r31, 0x0131
     d8e:	ec 0f       	add	r30, r28
     d90:	fd 1f       	adc	r31, r29
     d92:	84 91       	lpm	r24, Z
     d94:	60 e0       	ldi	r22, 0x00	; 0
     d96:	70 e0       	ldi	r23, 0x00	; 0
     d98:	0e 94 f8 0d 	call	0x1bf0	; 0x1bf0 <print_char>

	//The first letter is selected by default
	print_char(pgm_read_byte(&letters[0]), INVERSE);

	//print the rest of the letters
	for (int i = 1; i < NUMB_LETTERS; i++) {
     d9c:	21 96       	adiw	r28, 0x01	; 1
     d9e:	c0 33       	cpi	r28, 0x30	; 48
     da0:	d1 05       	cpc	r29, r1
     da2:	19 f7       	brne	.-58     	; 0xd6a <keyboard_init+0x68>
			keyboard_goto_line(++pos.y);
		}
		print_char(pgm_read_byte(&letters[i]), NORMAL);
	}
	//print the tool buttons
	keyboard_goto_line(4);
     da4:	84 e0       	ldi	r24, 0x04	; 4
     da6:	90 e0       	ldi	r25, 0x00	; 0
     da8:	0e 94 7c 06 	call	0xcf8	; 0xcf8 <keyboard_goto_line>
	print_options_bar(NORMAL, NORMAL, NORMAL, NORMAL);
     dac:	20 e0       	ldi	r18, 0x00	; 0
     dae:	30 e0       	ldi	r19, 0x00	; 0
     db0:	40 e0       	ldi	r20, 0x00	; 0
     db2:	50 e0       	ldi	r21, 0x00	; 0
     db4:	60 e0       	ldi	r22, 0x00	; 0
     db6:	70 e0       	ldi	r23, 0x00	; 0
     db8:	80 e0       	ldi	r24, 0x00	; 0
     dba:	90 e0       	ldi	r25, 0x00	; 0
     dbc:	0e 94 dd 0d 	call	0x1bba	; 0x1bba <print_options_bar>

	//reset y-position
	pos.y = 0;
     dc0:	10 92 a1 03 	sts	0x03A1, r1
     dc4:	10 92 a0 03 	sts	0x03A0, r1
     dc8:	ff ef       	ldi	r31, 0xFF	; 255
     dca:	2f e7       	ldi	r18, 0x7F	; 127
     dcc:	87 e0       	ldi	r24, 0x07	; 7
     dce:	f1 50       	subi	r31, 0x01	; 1
     dd0:	20 40       	sbci	r18, 0x00	; 0
     dd2:	80 40       	sbci	r24, 0x00	; 0
     dd4:	e1 f7       	brne	.-8      	; 0xdce <keyboard_init+0xcc>
     dd6:	00 c0       	rjmp	.+0      	; 0xdd8 <keyboard_init+0xd6>
     dd8:	00 00       	nop

	//ignore button pressed right away
	_delay_ms(500);

}
     dda:	df 91       	pop	r29
     ddc:	cf 91       	pop	r28
     dde:	1f 91       	pop	r17
     de0:	0f 91       	pop	r16
     de2:	ff 90       	pop	r15
     de4:	ef 90       	pop	r14
     de6:	08 95       	ret

00000de8 <keyboard_print>:


void keyboard_print() {
     de8:	ef 92       	push	r14
     dea:	ff 92       	push	r15
     dec:	0f 93       	push	r16
     dee:	1f 93       	push	r17
     df0:	cf 93       	push	r28
     df2:	df 93       	push	r29
	keyboard_goto_line(0);
     df4:	80 e0       	ldi	r24, 0x00	; 0
     df6:	90 e0       	ldi	r25, 0x00	; 0
     df8:	0e 94 7c 06 	call	0xcf8	; 0xcf8 <keyboard_goto_line>
	pos.y = 0;
     dfc:	10 92 a1 03 	sts	0x03A1, r1
     e00:	10 92 a0 03 	sts	0x03A0, r1
	//print the letters
	for (int i = 0; i < NUMB_LETTERS; i++) {
     e04:	c0 e0       	ldi	r28, 0x00	; 0
     e06:	d0 e0       	ldi	r29, 0x00	; 0
		if (i % LINE_LENGTH == 0 && i != 0) {
     e08:	0c e0       	ldi	r16, 0x0C	; 12
     e0a:	10 e0       	ldi	r17, 0x00	; 0
			keyboard_goto_line(++pos.y);
     e0c:	0f 2e       	mov	r0, r31
     e0e:	f0 ea       	ldi	r31, 0xA0	; 160
     e10:	ef 2e       	mov	r14, r31
     e12:	f3 e0       	ldi	r31, 0x03	; 3
     e14:	ff 2e       	mov	r15, r31
     e16:	f0 2d       	mov	r31, r0
     e18:	10 c0       	rjmp	.+32     	; 0xe3a <keyboard_print+0x52>
void keyboard_print() {
	keyboard_goto_line(0);
	pos.y = 0;
	//print the letters
	for (int i = 0; i < NUMB_LETTERS; i++) {
		if (i % LINE_LENGTH == 0 && i != 0) {
     e1a:	ce 01       	movw	r24, r28
     e1c:	b8 01       	movw	r22, r16
     e1e:	0e 94 43 0e 	call	0x1c86	; 0x1c86 <__divmodhi4>
     e22:	89 2b       	or	r24, r25
     e24:	51 f4       	brne	.+20     	; 0xe3a <keyboard_print+0x52>
     e26:	20 97       	sbiw	r28, 0x00	; 0
     e28:	41 f0       	breq	.+16     	; 0xe3a <keyboard_print+0x52>
			keyboard_goto_line(++pos.y);
     e2a:	f7 01       	movw	r30, r14
     e2c:	80 81       	ld	r24, Z
     e2e:	91 81       	ldd	r25, Z+1	; 0x01
     e30:	01 96       	adiw	r24, 0x01	; 1
     e32:	91 83       	std	Z+1, r25	; 0x01
     e34:	80 83       	st	Z, r24
     e36:	0e 94 7c 06 	call	0xcf8	; 0xcf8 <keyboard_goto_line>
		}
		print_char(pgm_read_byte(&letters[i]), NORMAL);
     e3a:	e0 91 30 01 	lds	r30, 0x0130
     e3e:	f0 91 31 01 	lds	r31, 0x0131
     e42:	ec 0f       	add	r30, r28
     e44:	fd 1f       	adc	r31, r29
     e46:	84 91       	lpm	r24, Z
     e48:	60 e0       	ldi	r22, 0x00	; 0
     e4a:	70 e0       	ldi	r23, 0x00	; 0
     e4c:	0e 94 f8 0d 	call	0x1bf0	; 0x1bf0 <print_char>

void keyboard_print() {
	keyboard_goto_line(0);
	pos.y = 0;
	//print the letters
	for (int i = 0; i < NUMB_LETTERS; i++) {
     e50:	21 96       	adiw	r28, 0x01	; 1
     e52:	c0 33       	cpi	r28, 0x30	; 48
     e54:	d1 05       	cpc	r29, r1
     e56:	09 f7       	brne	.-62     	; 0xe1a <keyboard_print+0x32>
			keyboard_goto_line(++pos.y);
		}
		print_char(pgm_read_byte(&letters[i]), NORMAL);
	}
	//print the tool buttons
	keyboard_goto_line(4);
     e58:	84 e0       	ldi	r24, 0x04	; 4
     e5a:	90 e0       	ldi	r25, 0x00	; 0
     e5c:	0e 94 7c 06 	call	0xcf8	; 0xcf8 <keyboard_goto_line>
	print_options_bar(NORMAL, NORMAL, NORMAL, NORMAL);
     e60:	20 e0       	ldi	r18, 0x00	; 0
     e62:	30 e0       	ldi	r19, 0x00	; 0
     e64:	40 e0       	ldi	r20, 0x00	; 0
     e66:	50 e0       	ldi	r21, 0x00	; 0
     e68:	60 e0       	ldi	r22, 0x00	; 0
     e6a:	70 e0       	ldi	r23, 0x00	; 0
     e6c:	80 e0       	ldi	r24, 0x00	; 0
     e6e:	90 e0       	ldi	r25, 0x00	; 0
     e70:	0e 94 dd 0d 	call	0x1bba	; 0x1bba <print_options_bar>


}
     e74:	df 91       	pop	r29
     e76:	cf 91       	pop	r28
     e78:	1f 91       	pop	r17
     e7a:	0f 91       	pop	r16
     e7c:	ff 90       	pop	r15
     e7e:	ef 90       	pop	r14
     e80:	08 95       	ret

00000e82 <toggle_shift>:
void keyboard_goto_line(int line) {
		keyboard_goto(line, 0);
	}

void toggle_shift() {
	if (letters == LETTERS_SMALL) {
     e82:	80 91 30 01 	lds	r24, 0x0130
     e86:	90 91 31 01 	lds	r25, 0x0131
     e8a:	80 5a       	subi	r24, 0xA0	; 160
     e8c:	90 40       	sbci	r25, 0x00	; 0
     e8e:	39 f4       	brne	.+14     	; 0xe9e <toggle_shift+0x1c>
		letters = (char*)LETTERS_BIG;
     e90:	80 e7       	ldi	r24, 0x70	; 112
     e92:	90 e0       	ldi	r25, 0x00	; 0
     e94:	90 93 31 01 	sts	0x0131, r25
     e98:	80 93 30 01 	sts	0x0130, r24
     e9c:	06 c0       	rjmp	.+12     	; 0xeaa <toggle_shift+0x28>
	}
	else {
		letters = (char*)LETTERS_SMALL;
     e9e:	80 ea       	ldi	r24, 0xA0	; 160
     ea0:	90 e0       	ldi	r25, 0x00	; 0
     ea2:	90 93 31 01 	sts	0x0131, r25
     ea6:	80 93 30 01 	sts	0x0130, r24
	}

	keyboard_print();
     eaa:	0e 94 f4 06 	call	0xde8	; 0xde8 <keyboard_print>
	keyboard_goto_line(4);
     eae:	84 e0       	ldi	r24, 0x04	; 4
     eb0:	90 e0       	ldi	r25, 0x00	; 0
     eb2:	0e 94 7c 06 	call	0xcf8	; 0xcf8 <keyboard_goto_line>
	print_shift(INVERSE);
     eb6:	81 e0       	ldi	r24, 0x01	; 1
     eb8:	90 e0       	ldi	r25, 0x00	; 0
     eba:	0e 94 ff 0c 	call	0x19fe	; 0x19fe <print_shift>
		
	pos.y = 4;
     ebe:	84 e0       	ldi	r24, 0x04	; 4
     ec0:	90 e0       	ldi	r25, 0x00	; 0
     ec2:	90 93 a1 03 	sts	0x03A1, r25
     ec6:	80 93 a0 03 	sts	0x03A0, r24
	pos.x = 0;
     eca:	10 92 9f 03 	sts	0x039F, r1
     ece:	10 92 9e 03 	sts	0x039E, r1
     ed2:	08 95       	ret

00000ed4 <keyboard_register_position_change>:
}

void keyboard_register_position_change(JOY_direction_t direction) {
	if (direction == NEUTRAL);
     ed4:	84 30       	cpi	r24, 0x04	; 4
     ed6:	09 f4       	brne	.+2      	; 0xeda <keyboard_register_position_change+0x6>
     ed8:	8a c0       	rjmp	.+276    	; 0xfee <keyboard_register_position_change+0x11a>
	else if (direction == DOWN && pos.y < 4) {
     eda:	83 30       	cpi	r24, 0x03	; 3
     edc:	91 f4       	brne	.+36     	; 0xf02 <keyboard_register_position_change+0x2e>
     ede:	20 91 a0 03 	lds	r18, 0x03A0
     ee2:	30 91 a1 03 	lds	r19, 0x03A1
     ee6:	24 30       	cpi	r18, 0x04	; 4
     ee8:	31 05       	cpc	r19, r1
     eea:	bc f5       	brge	.+110    	; 0xf5a <keyboard_register_position_change+0x86>
		prev_pos.y = pos.y++;
     eec:	c9 01       	movw	r24, r18
     eee:	01 96       	adiw	r24, 0x01	; 1
     ef0:	90 93 a1 03 	sts	0x03A1, r25
     ef4:	80 93 a0 03 	sts	0x03A0, r24
     ef8:	30 93 9d 03 	sts	0x039D, r19
     efc:	20 93 9c 03 	sts	0x039C, r18
     f00:	08 95       	ret
	}
	else if (direction == UP && pos.y > 0) {
     f02:	82 30       	cpi	r24, 0x02	; 2
     f04:	a1 f4       	brne	.+40     	; 0xf2e <keyboard_register_position_change+0x5a>
     f06:	80 91 a0 03 	lds	r24, 0x03A0
     f0a:	90 91 a1 03 	lds	r25, 0x03A1
     f0e:	18 16       	cp	r1, r24
     f10:	19 06       	cpc	r1, r25
     f12:	0c f0       	brlt	.+2      	; 0xf16 <keyboard_register_position_change+0x42>
     f14:	6c c0       	rjmp	.+216    	; 0xfee <keyboard_register_position_change+0x11a>
		prev_pos.y = pos.y--;
     f16:	9c 01       	movw	r18, r24
     f18:	21 50       	subi	r18, 0x01	; 1
     f1a:	31 09       	sbc	r19, r1
     f1c:	30 93 a1 03 	sts	0x03A1, r19
     f20:	20 93 a0 03 	sts	0x03A0, r18
     f24:	90 93 9d 03 	sts	0x039D, r25
     f28:	80 93 9c 03 	sts	0x039C, r24
     f2c:	08 95       	ret
	}
	else if (direction == LEFT && pos.x > 0) {
     f2e:	81 11       	cpse	r24, r1
     f30:	14 c0       	rjmp	.+40     	; 0xf5a <keyboard_register_position_change+0x86>
     f32:	80 91 9e 03 	lds	r24, 0x039E
     f36:	90 91 9f 03 	lds	r25, 0x039F
     f3a:	18 16       	cp	r1, r24
     f3c:	19 06       	cpc	r1, r25
     f3e:	0c f0       	brlt	.+2      	; 0xf42 <keyboard_register_position_change+0x6e>
     f40:	56 c0       	rjmp	.+172    	; 0xfee <keyboard_register_position_change+0x11a>
		prev_pos.x = pos.x--;
     f42:	9c 01       	movw	r18, r24
     f44:	21 50       	subi	r18, 0x01	; 1
     f46:	31 09       	sbc	r19, r1
     f48:	30 93 9f 03 	sts	0x039F, r19
     f4c:	20 93 9e 03 	sts	0x039E, r18
     f50:	90 93 9b 03 	sts	0x039B, r25
     f54:	80 93 9a 03 	sts	0x039A, r24
     f58:	08 95       	ret
	}
	else if (direction == RIGHT && pos.x < LINE_LENGTH - 1) {
     f5a:	81 30       	cpi	r24, 0x01	; 1
     f5c:	09 f0       	breq	.+2      	; 0xf60 <keyboard_register_position_change+0x8c>
     f5e:	47 c0       	rjmp	.+142    	; 0xfee <keyboard_register_position_change+0x11a>
     f60:	80 91 9e 03 	lds	r24, 0x039E
     f64:	90 91 9f 03 	lds	r25, 0x039F
     f68:	8b 30       	cpi	r24, 0x0B	; 11
     f6a:	91 05       	cpc	r25, r1
     f6c:	0c f0       	brlt	.+2      	; 0xf70 <keyboard_register_position_change+0x9c>
     f6e:	3f c0       	rjmp	.+126    	; 0xfee <keyboard_register_position_change+0x11a>

		if (pos.y == 4) {
     f70:	20 91 a0 03 	lds	r18, 0x03A0
     f74:	30 91 a1 03 	lds	r19, 0x03A1
     f78:	24 30       	cpi	r18, 0x04	; 4
     f7a:	31 05       	cpc	r19, r1
     f7c:	69 f5       	brne	.+90     	; 0xfd8 <keyboard_register_position_change+0x104>
			if (pos.x < 2) {
     f7e:	82 30       	cpi	r24, 0x02	; 2
     f80:	91 05       	cpc	r25, r1
     f82:	5c f4       	brge	.+22     	; 0xf9a <keyboard_register_position_change+0xc6>
				prev_pos.x = 0;
     f84:	10 92 9b 03 	sts	0x039B, r1
     f88:	10 92 9a 03 	sts	0x039A, r1
				pos.x = 2;
     f8c:	82 e0       	ldi	r24, 0x02	; 2
     f8e:	90 e0       	ldi	r25, 0x00	; 0
     f90:	90 93 9f 03 	sts	0x039F, r25
     f94:	80 93 9e 03 	sts	0x039E, r24
     f98:	08 95       	ret
			}
			else if (pos.x < 8) {
     f9a:	88 30       	cpi	r24, 0x08	; 8
     f9c:	91 05       	cpc	r25, r1
     f9e:	6c f4       	brge	.+26     	; 0xfba <keyboard_register_position_change+0xe6>
				prev_pos.x = 2;
     fa0:	82 e0       	ldi	r24, 0x02	; 2
     fa2:	90 e0       	ldi	r25, 0x00	; 0
     fa4:	90 93 9b 03 	sts	0x039B, r25
     fa8:	80 93 9a 03 	sts	0x039A, r24
				pos.x = 8;
     fac:	88 e0       	ldi	r24, 0x08	; 8
     fae:	90 e0       	ldi	r25, 0x00	; 0
     fb0:	90 93 9f 03 	sts	0x039F, r25
     fb4:	80 93 9e 03 	sts	0x039E, r24
     fb8:	08 95       	ret
			}
			else if (pos.x < 10) {
     fba:	0a 97       	sbiw	r24, 0x0a	; 10
     fbc:	c4 f4       	brge	.+48     	; 0xfee <keyboard_register_position_change+0x11a>
				prev_pos.x = 8;
     fbe:	88 e0       	ldi	r24, 0x08	; 8
     fc0:	90 e0       	ldi	r25, 0x00	; 0
     fc2:	90 93 9b 03 	sts	0x039B, r25
     fc6:	80 93 9a 03 	sts	0x039A, r24
				pos.x = 10;
     fca:	8a e0       	ldi	r24, 0x0A	; 10
     fcc:	90 e0       	ldi	r25, 0x00	; 0
     fce:	90 93 9f 03 	sts	0x039F, r25
     fd2:	80 93 9e 03 	sts	0x039E, r24
     fd6:	08 95       	ret
			}
		}
		else {
			prev_pos.x = pos.x++;
     fd8:	9c 01       	movw	r18, r24
     fda:	2f 5f       	subi	r18, 0xFF	; 255
     fdc:	3f 4f       	sbci	r19, 0xFF	; 255
     fde:	30 93 9f 03 	sts	0x039F, r19
     fe2:	20 93 9e 03 	sts	0x039E, r18
     fe6:	90 93 9b 03 	sts	0x039B, r25
     fea:	80 93 9a 03 	sts	0x039A, r24
     fee:	08 95       	ret

00000ff0 <keyboard_unselect_prev>:
		}
	}
}


void keyboard_unselect_prev() {
     ff0:	cf 93       	push	r28
     ff2:	df 93       	push	r29
	//old item is a letter
	if (prev_pos.y < 4) {
     ff4:	80 91 9c 03 	lds	r24, 0x039C
     ff8:	90 91 9d 03 	lds	r25, 0x039D
     ffc:	84 30       	cpi	r24, 0x04	; 4
     ffe:	91 05       	cpc	r25, r1
    1000:	24 f5       	brge	.+72     	; 0x104a <keyboard_unselect_prev+0x5a>
		keyboard_goto(prev_pos.y, prev_pos.x);
    1002:	ca e9       	ldi	r28, 0x9A	; 154
    1004:	d3 e0       	ldi	r29, 0x03	; 3
    1006:	68 81       	ld	r22, Y
    1008:	79 81       	ldd	r23, Y+1	; 0x01
    100a:	0e 94 2b 06 	call	0xc56	; 0xc56 <keyboard_goto>
		print_char(pgm_read_byte(&letters[prev_pos.y * LINE_LENGTH + prev_pos.x]), NORMAL);
    100e:	80 91 9c 03 	lds	r24, 0x039C
    1012:	90 91 9d 03 	lds	r25, 0x039D
    1016:	fc 01       	movw	r30, r24
    1018:	ee 0f       	add	r30, r30
    101a:	ff 1f       	adc	r31, r31
    101c:	8e 0f       	add	r24, r30
    101e:	9f 1f       	adc	r25, r31
    1020:	fc 01       	movw	r30, r24
    1022:	ee 0f       	add	r30, r30
    1024:	ff 1f       	adc	r31, r31
    1026:	ee 0f       	add	r30, r30
    1028:	ff 1f       	adc	r31, r31
    102a:	28 81       	ld	r18, Y
    102c:	39 81       	ldd	r19, Y+1	; 0x01
    102e:	e2 0f       	add	r30, r18
    1030:	f3 1f       	adc	r31, r19
    1032:	80 91 30 01 	lds	r24, 0x0130
    1036:	90 91 31 01 	lds	r25, 0x0131
    103a:	e8 0f       	add	r30, r24
    103c:	f9 1f       	adc	r31, r25
    103e:	84 91       	lpm	r24, Z
    1040:	60 e0       	ldi	r22, 0x00	; 0
    1042:	70 e0       	ldi	r23, 0x00	; 0
    1044:	0e 94 f8 0d 	call	0x1bf0	; 0x1bf0 <print_char>
    1048:	46 c0       	rjmp	.+140    	; 0x10d6 <keyboard_unselect_prev+0xe6>
	}

	//old item is in toolbar
	else {
		if (prev_pos.x < 2) {
    104a:	20 91 9a 03 	lds	r18, 0x039A
    104e:	30 91 9b 03 	lds	r19, 0x039B
    1052:	22 30       	cpi	r18, 0x02	; 2
    1054:	31 05       	cpc	r19, r1
    1056:	6c f4       	brge	.+26     	; 0x1072 <keyboard_unselect_prev+0x82>
			prev_pos.x = 0;
    1058:	10 92 9b 03 	sts	0x039B, r1
    105c:	10 92 9a 03 	sts	0x039A, r1
			keyboard_goto(prev_pos.y, prev_pos.x);
    1060:	60 e0       	ldi	r22, 0x00	; 0
    1062:	70 e0       	ldi	r23, 0x00	; 0
    1064:	0e 94 2b 06 	call	0xc56	; 0xc56 <keyboard_goto>
			print_shift(NORMAL);
    1068:	80 e0       	ldi	r24, 0x00	; 0
    106a:	90 e0       	ldi	r25, 0x00	; 0
    106c:	0e 94 ff 0c 	call	0x19fe	; 0x19fe <print_shift>
    1070:	32 c0       	rjmp	.+100    	; 0x10d6 <keyboard_unselect_prev+0xe6>
		}
		else if (prev_pos.x < 8) {
    1072:	28 30       	cpi	r18, 0x08	; 8
    1074:	31 05       	cpc	r19, r1
    1076:	7c f4       	brge	.+30     	; 0x1096 <keyboard_unselect_prev+0xa6>
			prev_pos.x = 2; //start of spacebar
    1078:	22 e0       	ldi	r18, 0x02	; 2
    107a:	30 e0       	ldi	r19, 0x00	; 0
    107c:	30 93 9b 03 	sts	0x039B, r19
    1080:	20 93 9a 03 	sts	0x039A, r18
			keyboard_goto(prev_pos.y, prev_pos.x);
    1084:	62 e0       	ldi	r22, 0x02	; 2
    1086:	70 e0       	ldi	r23, 0x00	; 0
    1088:	0e 94 2b 06 	call	0xc56	; 0xc56 <keyboard_goto>
			print_spacebar(NORMAL);
    108c:	80 e0       	ldi	r24, 0x00	; 0
    108e:	90 e0       	ldi	r25, 0x00	; 0
    1090:	0e 94 a3 0d 	call	0x1b46	; 0x1b46 <print_spacebar>
    1094:	20 c0       	rjmp	.+64     	; 0x10d6 <keyboard_unselect_prev+0xe6>
		}
		else if (prev_pos.x < 10) {
    1096:	2a 30       	cpi	r18, 0x0A	; 10
    1098:	31 05       	cpc	r19, r1
    109a:	7c f4       	brge	.+30     	; 0x10ba <keyboard_unselect_prev+0xca>
			prev_pos.x = 8; //start of left arrow
    109c:	28 e0       	ldi	r18, 0x08	; 8
    109e:	30 e0       	ldi	r19, 0x00	; 0
    10a0:	30 93 9b 03 	sts	0x039B, r19
    10a4:	20 93 9a 03 	sts	0x039A, r18
			keyboard_goto(prev_pos.y, prev_pos.x);
    10a8:	68 e0       	ldi	r22, 0x08	; 8
    10aa:	70 e0       	ldi	r23, 0x00	; 0
    10ac:	0e 94 2b 06 	call	0xc56	; 0xc56 <keyboard_goto>
			print_left_arrow(NORMAL);
    10b0:	80 e0       	ldi	r24, 0x00	; 0
    10b2:	90 e0       	ldi	r25, 0x00	; 0
    10b4:	0e 94 4b 0d 	call	0x1a96	; 0x1a96 <print_left_arrow>
    10b8:	0e c0       	rjmp	.+28     	; 0x10d6 <keyboard_unselect_prev+0xe6>
		}
		else {
			prev_pos.x = 10; //start of right arrow
    10ba:	2a e0       	ldi	r18, 0x0A	; 10
    10bc:	30 e0       	ldi	r19, 0x00	; 0
    10be:	30 93 9b 03 	sts	0x039B, r19
    10c2:	20 93 9a 03 	sts	0x039A, r18
			keyboard_goto(prev_pos.y, prev_pos.x);
    10c6:	6a e0       	ldi	r22, 0x0A	; 10
    10c8:	70 e0       	ldi	r23, 0x00	; 0
    10ca:	0e 94 2b 06 	call	0xc56	; 0xc56 <keyboard_goto>
			print_right_arrow(NORMAL);
    10ce:	80 e0       	ldi	r24, 0x00	; 0
    10d0:	90 e0       	ldi	r25, 0x00	; 0
    10d2:	0e 94 77 0d 	call	0x1aee	; 0x1aee <print_right_arrow>
		}
	}
}
    10d6:	df 91       	pop	r29
    10d8:	cf 91       	pop	r28
    10da:	08 95       	ret

000010dc <keyboard_select_curr>:

void keyboard_select_curr() {
    10dc:	cf 93       	push	r28
    10de:	df 93       	push	r29
	//selected item is a letter
	if (pos.y < 4) {
    10e0:	80 91 a0 03 	lds	r24, 0x03A0
    10e4:	90 91 a1 03 	lds	r25, 0x03A1
    10e8:	84 30       	cpi	r24, 0x04	; 4
    10ea:	91 05       	cpc	r25, r1
    10ec:	24 f5       	brge	.+72     	; 0x1136 <keyboard_select_curr+0x5a>
		keyboard_goto(pos.y, pos.x);
    10ee:	ce e9       	ldi	r28, 0x9E	; 158
    10f0:	d3 e0       	ldi	r29, 0x03	; 3
    10f2:	68 81       	ld	r22, Y
    10f4:	79 81       	ldd	r23, Y+1	; 0x01
    10f6:	0e 94 2b 06 	call	0xc56	; 0xc56 <keyboard_goto>
		print_char(pgm_read_byte(&letters[pos.y * LINE_LENGTH + pos.x]), INVERSE);
    10fa:	80 91 a0 03 	lds	r24, 0x03A0
    10fe:	90 91 a1 03 	lds	r25, 0x03A1
    1102:	fc 01       	movw	r30, r24
    1104:	ee 0f       	add	r30, r30
    1106:	ff 1f       	adc	r31, r31
    1108:	8e 0f       	add	r24, r30
    110a:	9f 1f       	adc	r25, r31
    110c:	fc 01       	movw	r30, r24
    110e:	ee 0f       	add	r30, r30
    1110:	ff 1f       	adc	r31, r31
    1112:	ee 0f       	add	r30, r30
    1114:	ff 1f       	adc	r31, r31
    1116:	28 81       	ld	r18, Y
    1118:	39 81       	ldd	r19, Y+1	; 0x01
    111a:	e2 0f       	add	r30, r18
    111c:	f3 1f       	adc	r31, r19
    111e:	80 91 30 01 	lds	r24, 0x0130
    1122:	90 91 31 01 	lds	r25, 0x0131
    1126:	e8 0f       	add	r30, r24
    1128:	f9 1f       	adc	r31, r25
    112a:	84 91       	lpm	r24, Z
    112c:	61 e0       	ldi	r22, 0x01	; 1
    112e:	70 e0       	ldi	r23, 0x00	; 0
    1130:	0e 94 f8 0d 	call	0x1bf0	; 0x1bf0 <print_char>
    1134:	46 c0       	rjmp	.+140    	; 0x11c2 <keyboard_select_curr+0xe6>
	}

	//selected menu item is in toolbar
	else {
		if (pos.x < 2) {
    1136:	20 91 9e 03 	lds	r18, 0x039E
    113a:	30 91 9f 03 	lds	r19, 0x039F
    113e:	22 30       	cpi	r18, 0x02	; 2
    1140:	31 05       	cpc	r19, r1
    1142:	6c f4       	brge	.+26     	; 0x115e <keyboard_select_curr+0x82>
			pos.x = 0;
    1144:	10 92 9f 03 	sts	0x039F, r1
    1148:	10 92 9e 03 	sts	0x039E, r1
			keyboard_goto(pos.y, pos.x);
    114c:	60 e0       	ldi	r22, 0x00	; 0
    114e:	70 e0       	ldi	r23, 0x00	; 0
    1150:	0e 94 2b 06 	call	0xc56	; 0xc56 <keyboard_goto>
			print_shift(INVERSE);
    1154:	81 e0       	ldi	r24, 0x01	; 1
    1156:	90 e0       	ldi	r25, 0x00	; 0
    1158:	0e 94 ff 0c 	call	0x19fe	; 0x19fe <print_shift>
    115c:	32 c0       	rjmp	.+100    	; 0x11c2 <keyboard_select_curr+0xe6>
		}
		else if (pos.x < 8) {
    115e:	28 30       	cpi	r18, 0x08	; 8
    1160:	31 05       	cpc	r19, r1
    1162:	7c f4       	brge	.+30     	; 0x1182 <keyboard_select_curr+0xa6>
			pos.x = 2; //start of spacebar
    1164:	22 e0       	ldi	r18, 0x02	; 2
    1166:	30 e0       	ldi	r19, 0x00	; 0
    1168:	30 93 9f 03 	sts	0x039F, r19
    116c:	20 93 9e 03 	sts	0x039E, r18
			keyboard_goto(pos.y, pos.x);
    1170:	62 e0       	ldi	r22, 0x02	; 2
    1172:	70 e0       	ldi	r23, 0x00	; 0
    1174:	0e 94 2b 06 	call	0xc56	; 0xc56 <keyboard_goto>
			print_spacebar(INVERSE);
    1178:	81 e0       	ldi	r24, 0x01	; 1
    117a:	90 e0       	ldi	r25, 0x00	; 0
    117c:	0e 94 a3 0d 	call	0x1b46	; 0x1b46 <print_spacebar>
    1180:	20 c0       	rjmp	.+64     	; 0x11c2 <keyboard_select_curr+0xe6>
		}
		else if (pos.x < 10) {
    1182:	2a 30       	cpi	r18, 0x0A	; 10
    1184:	31 05       	cpc	r19, r1
    1186:	7c f4       	brge	.+30     	; 0x11a6 <keyboard_select_curr+0xca>
			pos.x = 8; //start of left arrow
    1188:	28 e0       	ldi	r18, 0x08	; 8
    118a:	30 e0       	ldi	r19, 0x00	; 0
    118c:	30 93 9f 03 	sts	0x039F, r19
    1190:	20 93 9e 03 	sts	0x039E, r18
			keyboard_goto(pos.y, pos.x);
    1194:	68 e0       	ldi	r22, 0x08	; 8
    1196:	70 e0       	ldi	r23, 0x00	; 0
    1198:	0e 94 2b 06 	call	0xc56	; 0xc56 <keyboard_goto>
			print_left_arrow(INVERSE);
    119c:	81 e0       	ldi	r24, 0x01	; 1
    119e:	90 e0       	ldi	r25, 0x00	; 0
    11a0:	0e 94 4b 0d 	call	0x1a96	; 0x1a96 <print_left_arrow>
    11a4:	0e c0       	rjmp	.+28     	; 0x11c2 <keyboard_select_curr+0xe6>
		}
		else {
			pos.x = 10; //start of right arrow
    11a6:	2a e0       	ldi	r18, 0x0A	; 10
    11a8:	30 e0       	ldi	r19, 0x00	; 0
    11aa:	30 93 9f 03 	sts	0x039F, r19
    11ae:	20 93 9e 03 	sts	0x039E, r18
			keyboard_goto(pos.y, pos.x);
    11b2:	6a e0       	ldi	r22, 0x0A	; 10
    11b4:	70 e0       	ldi	r23, 0x00	; 0
    11b6:	0e 94 2b 06 	call	0xc56	; 0xc56 <keyboard_goto>
			print_right_arrow(INVERSE);
    11ba:	81 e0       	ldi	r24, 0x01	; 1
    11bc:	90 e0       	ldi	r25, 0x00	; 0
    11be:	0e 94 77 0d 	call	0x1aee	; 0x1aee <print_right_arrow>
		}
	}
}
    11c2:	df 91       	pop	r29
    11c4:	cf 91       	pop	r28
    11c6:	08 95       	ret

000011c8 <keyboard_item_pressed>:


void keyboard_item_pressed() {
	if (pos.y < 4) {
    11c8:	80 91 a0 03 	lds	r24, 0x03A0
    11cc:	90 91 a1 03 	lds	r25, 0x03A1
    11d0:	84 30       	cpi	r24, 0x04	; 4
    11d2:	91 05       	cpc	r25, r1
    11d4:	e4 f4       	brge	.+56     	; 0x120e <keyboard_item_pressed+0x46>
		append_char(pgm_read_byte(&letters[pos.y * LINE_LENGTH + pos.x]));
    11d6:	fc 01       	movw	r30, r24
    11d8:	ee 0f       	add	r30, r30
    11da:	ff 1f       	adc	r31, r31
    11dc:	8e 0f       	add	r24, r30
    11de:	9f 1f       	adc	r25, r31
    11e0:	fc 01       	movw	r30, r24
    11e2:	ee 0f       	add	r30, r30
    11e4:	ff 1f       	adc	r31, r31
    11e6:	ee 0f       	add	r30, r30
    11e8:	ff 1f       	adc	r31, r31
    11ea:	20 91 9e 03 	lds	r18, 0x039E
    11ee:	30 91 9f 03 	lds	r19, 0x039F
    11f2:	e2 0f       	add	r30, r18
    11f4:	f3 1f       	adc	r31, r19
    11f6:	80 91 30 01 	lds	r24, 0x0130
    11fa:	90 91 31 01 	lds	r25, 0x0131
    11fe:	e8 0f       	add	r30, r24
    1200:	f9 1f       	adc	r31, r25
    1202:	84 91       	lpm	r24, Z
    1204:	0e 94 06 06 	call	0xc0c	; 0xc0c <append_char>
		//printf("APPEND written string: %s", written_string);
		//replace with a print function that remembers which part is printed, used with < >
		print_string();
    1208:	0e 94 34 06 	call	0xc68	; 0xc68 <print_string>
    120c:	08 95       	ret
	}
	else {
		if (pos.x < 2) {
    120e:	80 91 9e 03 	lds	r24, 0x039E
    1212:	90 91 9f 03 	lds	r25, 0x039F
    1216:	82 30       	cpi	r24, 0x02	; 2
    1218:	91 05       	cpc	r25, r1
    121a:	1c f4       	brge	.+6      	; 0x1222 <keyboard_item_pressed+0x5a>
			toggle_shift();
    121c:	0e 94 41 07 	call	0xe82	; 0xe82 <toggle_shift>
    1220:	08 95       	ret
		}
		else if (pos.x < 8) {
    1222:	88 30       	cpi	r24, 0x08	; 8
    1224:	91 05       	cpc	r25, r1
    1226:	34 f4       	brge	.+12     	; 0x1234 <keyboard_item_pressed+0x6c>
			append_char(32);
    1228:	80 e2       	ldi	r24, 0x20	; 32
    122a:	0e 94 06 06 	call	0xc0c	; 0xc0c <append_char>
			print_string();
    122e:	0e 94 34 06 	call	0xc68	; 0xc68 <print_string>
    1232:	08 95       	ret
		}
		
		//last two probably not working
		else if (pos.x < 10 && string_position > 0) {
    1234:	8a 30       	cpi	r24, 0x0A	; 10
    1236:	91 05       	cpc	r25, r1
    1238:	74 f4       	brge	.+28     	; 0x1256 <keyboard_item_pressed+0x8e>
    123a:	20 91 a4 03 	lds	r18, 0x03A4
    123e:	30 91 a5 03 	lds	r19, 0x03A5
    1242:	12 16       	cp	r1, r18
    1244:	13 06       	cpc	r1, r19
    1246:	3c f4       	brge	.+14     	; 0x1256 <keyboard_item_pressed+0x8e>
			string_position--;
    1248:	21 50       	subi	r18, 0x01	; 1
    124a:	31 09       	sbc	r19, r1
    124c:	30 93 a5 03 	sts	0x03A5, r19
    1250:	20 93 a4 03 	sts	0x03A4, r18
    1254:	08 95       	ret
		}
		else if (pos.x < 12 && string_position < strlen(written_string)) {
    1256:	0c 97       	sbiw	r24, 0x0c	; 12
    1258:	a4 f4       	brge	.+40     	; 0x1282 <keyboard_item_pressed+0xba>
    125a:	80 91 a4 03 	lds	r24, 0x03A4
    125e:	90 91 a5 03 	lds	r25, 0x03A5
    1262:	e2 eb       	ldi	r30, 0xB2	; 178
    1264:	f3 e0       	ldi	r31, 0x03	; 3
    1266:	01 90       	ld	r0, Z+
    1268:	00 20       	and	r0, r0
    126a:	e9 f7       	brne	.-6      	; 0x1266 <keyboard_item_pressed+0x9e>
    126c:	31 97       	sbiw	r30, 0x01	; 1
    126e:	e2 5b       	subi	r30, 0xB2	; 178
    1270:	f3 40       	sbci	r31, 0x03	; 3
    1272:	8e 17       	cp	r24, r30
    1274:	9f 07       	cpc	r25, r31
    1276:	28 f4       	brcc	.+10     	; 0x1282 <keyboard_item_pressed+0xba>
			string_position++;
    1278:	01 96       	adiw	r24, 0x01	; 1
    127a:	90 93 a5 03 	sts	0x03A5, r25
    127e:	80 93 a4 03 	sts	0x03A4, r24
    1282:	08 95       	ret

00001284 <keyboard_run>:
	}
}



void keyboard_run() {
    1284:	6f 92       	push	r6
    1286:	7f 92       	push	r7
    1288:	8f 92       	push	r8
    128a:	9f 92       	push	r9
    128c:	af 92       	push	r10
    128e:	bf 92       	push	r11
    1290:	cf 92       	push	r12
    1292:	df 92       	push	r13
    1294:	ef 92       	push	r14
    1296:	ff 92       	push	r15
    1298:	0f 93       	push	r16
    129a:	1f 93       	push	r17
    129c:	cf 93       	push	r28
    129e:	df 93       	push	r29
	keyboard_init();
    12a0:	0e 94 81 06 	call	0xd02	; 0xd02 <keyboard_init>
	while (!JOY_button_pressed(LEFT_BUTTON)) {
		//Check if we switch letter
		direction = JOY_getDirection();
		keyboard_register_position_change(direction);
		
		if (prev_pos.y != pos.y || prev_pos.x != pos.x) {
    12a4:	0f 2e       	mov	r0, r31
    12a6:	fc e9       	ldi	r31, 0x9C	; 156
    12a8:	ef 2e       	mov	r14, r31
    12aa:	f3 e0       	ldi	r31, 0x03	; 3
    12ac:	ff 2e       	mov	r15, r31
    12ae:	f0 2d       	mov	r31, r0
    12b0:	00 ea       	ldi	r16, 0xA0	; 160
    12b2:	13 e0       	ldi	r17, 0x03	; 3
			//unselect the old letter and select the new one
			keyboard_unselect_prev();
			keyboard_select_curr();

			//Reset position
			prev_pos.x = pos.x;
    12b4:	0f 2e       	mov	r0, r31
    12b6:	fa e9       	ldi	r31, 0x9A	; 154
    12b8:	af 2e       	mov	r10, r31
    12ba:	f3 e0       	ldi	r31, 0x03	; 3
    12bc:	bf 2e       	mov	r11, r31
    12be:	f0 2d       	mov	r31, r0
    12c0:	0f 2e       	mov	r0, r31
    12c2:	fe e9       	ldi	r31, 0x9E	; 158
    12c4:	cf 2e       	mov	r12, r31
    12c6:	f3 e0       	ldi	r31, 0x03	; 3
    12c8:	df 2e       	mov	r13, r31
    12ca:	f0 2d       	mov	r31, r0
		direction = JOY_getDirection();
		keyboard_register_position_change(direction);
		
		if (prev_pos.y != pos.y || prev_pos.x != pos.x) {
			//printf("prev_pos.y: %d, y: %d, prev_pos.x: %d, prev_pos.y %d\n", prev_pos.y, pos.y, prev_pos.x, pos.x);
			position_moved = 1;
    12cc:	88 24       	eor	r8, r8
    12ce:	83 94       	inc	r8
    12d0:	91 2c       	mov	r9, r1
    12d2:	61 2c       	mov	r6, r1
    12d4:	71 2c       	mov	r7, r1

	//detect changes
	int position_moved = 0;
	int button_pressed = 0;

	while (!JOY_button_pressed(LEFT_BUTTON)) {
    12d6:	59 c0       	rjmp	.+178    	; 0x138a <keyboard_run+0x106>
		//Check if we switch letter
		direction = JOY_getDirection();
    12d8:	0e 94 c7 05 	call	0xb8e	; 0xb8e <JOY_getDirection>
		keyboard_register_position_change(direction);
    12dc:	0e 94 6a 07 	call	0xed4	; 0xed4 <keyboard_register_position_change>
		
		if (prev_pos.y != pos.y || prev_pos.x != pos.x) {
    12e0:	f7 01       	movw	r30, r14
    12e2:	20 81       	ld	r18, Z
    12e4:	31 81       	ldd	r19, Z+1	; 0x01
    12e6:	f8 01       	movw	r30, r16
    12e8:	80 81       	ld	r24, Z
    12ea:	91 81       	ldd	r25, Z+1	; 0x01
    12ec:	28 17       	cp	r18, r24
    12ee:	39 07       	cpc	r19, r25
    12f0:	49 f4       	brne	.+18     	; 0x1304 <keyboard_run+0x80>
    12f2:	f5 01       	movw	r30, r10
    12f4:	20 81       	ld	r18, Z
    12f6:	31 81       	ldd	r19, Z+1	; 0x01
    12f8:	f6 01       	movw	r30, r12
    12fa:	80 81       	ld	r24, Z
    12fc:	91 81       	ldd	r25, Z+1	; 0x01
    12fe:	28 17       	cp	r18, r24
    1300:	39 07       	cpc	r19, r25
    1302:	99 f0       	breq	.+38     	; 0x132a <keyboard_run+0xa6>
			//printf("prev_pos.y: %d, y: %d, prev_pos.x: %d, prev_pos.y %d\n", prev_pos.y, pos.y, prev_pos.x, pos.x);
			position_moved = 1;
			//unselect the old letter and select the new one
			keyboard_unselect_prev();
    1304:	0e 94 f8 07 	call	0xff0	; 0xff0 <keyboard_unselect_prev>
			keyboard_select_curr();
    1308:	0e 94 6e 08 	call	0x10dc	; 0x10dc <keyboard_select_curr>

			//Reset position
			prev_pos.x = pos.x;
    130c:	f6 01       	movw	r30, r12
    130e:	80 81       	ld	r24, Z
    1310:	91 81       	ldd	r25, Z+1	; 0x01
    1312:	f5 01       	movw	r30, r10
    1314:	91 83       	std	Z+1, r25	; 0x01
    1316:	80 83       	st	Z, r24
			prev_pos.y = pos.y;
    1318:	f8 01       	movw	r30, r16
    131a:	80 81       	ld	r24, Z
    131c:	91 81       	ldd	r25, Z+1	; 0x01
    131e:	f7 01       	movw	r30, r14
    1320:	91 83       	std	Z+1, r25	; 0x01
    1322:	80 83       	st	Z, r24
		direction = JOY_getDirection();
		keyboard_register_position_change(direction);
		
		if (prev_pos.y != pos.y || prev_pos.x != pos.x) {
			//printf("prev_pos.y: %d, y: %d, prev_pos.x: %d, prev_pos.y %d\n", prev_pos.y, pos.y, prev_pos.x, pos.x);
			position_moved = 1;
    1324:	c8 2d       	mov	r28, r8
    1326:	d9 2d       	mov	r29, r9
    1328:	02 c0       	rjmp	.+4      	; 0x132e <keyboard_run+0xaa>
    132a:	c6 2d       	mov	r28, r6
    132c:	d7 2d       	mov	r29, r7
			prev_pos.y = pos.y;
		}


		//check if we wish to add the current letter to our string or activate an option
		if (JOY_button_pressed(JOY_BUTTON)) {
    132e:	82 e0       	ldi	r24, 0x02	; 2
    1330:	0e 94 7b 05 	call	0xaf6	; 0xaf6 <JOY_button_pressed>
    1334:	89 2b       	or	r24, r25
    1336:	29 f0       	breq	.+10     	; 0x1342 <keyboard_run+0xbe>
			button_pressed = 1;
			keyboard_item_pressed();
    1338:	0e 94 e4 08 	call	0x11c8	; 0x11c8 <keyboard_item_pressed>
		}


		//check if we wish to add the current letter to our string or activate an option
		if (JOY_button_pressed(JOY_BUTTON)) {
			button_pressed = 1;
    133c:	88 2d       	mov	r24, r8
    133e:	99 2d       	mov	r25, r9
    1340:	0e c0       	rjmp	.+28     	; 0x135e <keyboard_run+0xda>
			keyboard_item_pressed();
			
		}
		//check if we wish to remove a letter from our string
		else if (JOY_button_pressed(RIGHT_BUTTON)) {
    1342:	81 e0       	ldi	r24, 0x01	; 1
    1344:	0e 94 7b 05 	call	0xaf6	; 0xaf6 <JOY_button_pressed>
    1348:	89 2b       	or	r24, r25
    134a:	39 f0       	breq	.+14     	; 0x135a <keyboard_run+0xd6>
			button_pressed = 1;
			//not working
			remove_last_char();
    134c:	0e 94 1f 06 	call	0xc3e	; 0xc3e <remove_last_char>
			//printf("REMOVE written string: %s", written_string);
			print_string();
    1350:	0e 94 34 06 	call	0xc68	; 0xc68 <print_string>
			keyboard_item_pressed();
			
		}
		//check if we wish to remove a letter from our string
		else if (JOY_button_pressed(RIGHT_BUTTON)) {
			button_pressed = 1;
    1354:	88 2d       	mov	r24, r8
    1356:	99 2d       	mov	r25, r9
    1358:	02 c0       	rjmp	.+4      	; 0x135e <keyboard_run+0xda>
    135a:	86 2d       	mov	r24, r6
    135c:	97 2d       	mov	r25, r7
			//OLED_pos(0, pointer);
			//print_blank(8);
			//blinking_pos_on = 1;
		//}
		
		if(position_moved){
    135e:	cd 2b       	or	r28, r29
    1360:	49 f0       	breq	.+18     	; 0x1374 <keyboard_run+0xf0>
    1362:	ef ef       	ldi	r30, 0xFF	; 255
    1364:	ff eb       	ldi	r31, 0xBF	; 191
    1366:	23 e0       	ldi	r18, 0x03	; 3
    1368:	e1 50       	subi	r30, 0x01	; 1
    136a:	f0 40       	sbci	r31, 0x00	; 0
    136c:	20 40       	sbci	r18, 0x00	; 0
    136e:	e1 f7       	brne	.-8      	; 0x1368 <keyboard_run+0xe4>
    1370:	00 c0       	rjmp	.+0      	; 0x1372 <keyboard_run+0xee>
    1372:	00 00       	nop
			position_moved = 0;
			_delay_ms(250);
		}
		if(button_pressed){
    1374:	89 2b       	or	r24, r25
    1376:	49 f0       	breq	.+18     	; 0x138a <keyboard_run+0x106>
    1378:	3f ef       	ldi	r19, 0xFF	; 255
    137a:	4f e3       	ldi	r20, 0x3F	; 63
    137c:	85 e0       	ldi	r24, 0x05	; 5
    137e:	31 50       	subi	r19, 0x01	; 1
    1380:	40 40       	sbci	r20, 0x00	; 0
    1382:	80 40       	sbci	r24, 0x00	; 0
    1384:	e1 f7       	brne	.-8      	; 0x137e <keyboard_run+0xfa>
    1386:	00 c0       	rjmp	.+0      	; 0x1388 <keyboard_run+0x104>
    1388:	00 c0       	rjmp	.+0      	; 0x138a <keyboard_run+0x106>

	//detect changes
	int position_moved = 0;
	int button_pressed = 0;

	while (!JOY_button_pressed(LEFT_BUTTON)) {
    138a:	80 e0       	ldi	r24, 0x00	; 0
    138c:	0e 94 7b 05 	call	0xaf6	; 0xaf6 <JOY_button_pressed>
    1390:	89 2b       	or	r24, r25
    1392:	09 f4       	brne	.+2      	; 0x1396 <keyboard_run+0x112>
    1394:	a1 cf       	rjmp	.-190    	; 0x12d8 <keyboard_run+0x54>
		if(button_pressed){
			button_pressed = 0;
			_delay_ms(350);
		}
	}
    1396:	df 91       	pop	r29
    1398:	cf 91       	pop	r28
    139a:	1f 91       	pop	r17
    139c:	0f 91       	pop	r16
    139e:	ff 90       	pop	r15
    13a0:	ef 90       	pop	r14
    13a2:	df 90       	pop	r13
    13a4:	cf 90       	pop	r12
    13a6:	bf 90       	pop	r11
    13a8:	af 90       	pop	r10
    13aa:	9f 90       	pop	r9
    13ac:	8f 90       	pop	r8
    13ae:	7f 90       	pop	r7
    13b0:	6f 90       	pop	r6
    13b2:	08 95       	ret

000013b4 <MCP2515_read>:
	}
	
	return 0;
}

char MCP2515_read(char address) {
    13b4:	cf 93       	push	r28
    13b6:	c8 2f       	mov	r28, r24
	SPI_select();
    13b8:	0e 94 1d 0e 	call	0x1c3a	; 0x1c3a <SPI_select>
	SPI_send(READ);
    13bc:	83 e0       	ldi	r24, 0x03	; 3
    13be:	0e 94 12 0e 	call	0x1c24	; 0x1c24 <SPI_send>
	SPI_send(address);
    13c2:	8c 2f       	mov	r24, r28
    13c4:	0e 94 12 0e 	call	0x1c24	; 0x1c24 <SPI_send>
	char data = SPI_read();
    13c8:	0e 94 16 0e 	call	0x1c2c	; 0x1c2c <SPI_read>
    13cc:	c8 2f       	mov	r28, r24
	SPI_deselect();
    13ce:	0e 94 1f 0e 	call	0x1c3e	; 0x1c3e <SPI_deselect>
	return data;
	
	
}
    13d2:	8c 2f       	mov	r24, r28
    13d4:	cf 91       	pop	r28
    13d6:	08 95       	ret

000013d8 <MCP2515_write>:

void MCP2515_write(char address, char data) {
    13d8:	cf 93       	push	r28
    13da:	df 93       	push	r29
    13dc:	d8 2f       	mov	r29, r24
    13de:	c6 2f       	mov	r28, r22
	SPI_select();
    13e0:	0e 94 1d 0e 	call	0x1c3a	; 0x1c3a <SPI_select>
	SPI_send(WRITE);
    13e4:	82 e0       	ldi	r24, 0x02	; 2
    13e6:	0e 94 12 0e 	call	0x1c24	; 0x1c24 <SPI_send>
	SPI_send(address);
    13ea:	8d 2f       	mov	r24, r29
    13ec:	0e 94 12 0e 	call	0x1c24	; 0x1c24 <SPI_send>
	SPI_send(data);
    13f0:	8c 2f       	mov	r24, r28
    13f2:	0e 94 12 0e 	call	0x1c24	; 0x1c24 <SPI_send>
	SPI_deselect();
    13f6:	0e 94 1f 0e 	call	0x1c3e	; 0x1c3e <SPI_deselect>
}
    13fa:	df 91       	pop	r29
    13fc:	cf 91       	pop	r28
    13fe:	08 95       	ret

00001400 <MCP2515_request_to_send>:

//Buffer states: three bit, setting a 1 on the buffer initiates transmitting from it 
void MCP2515_request_to_send(uint8_t buffer_states) {
    1400:	cf 93       	push	r28
    1402:	c8 2f       	mov	r28, r24
	SPI_select();
    1404:	0e 94 1d 0e 	call	0x1c3a	; 0x1c3a <SPI_select>
	SPI_send(RTS_BASE+buffer_states);
    1408:	80 e8       	ldi	r24, 0x80	; 128
    140a:	8c 0f       	add	r24, r28
    140c:	0e 94 12 0e 	call	0x1c24	; 0x1c24 <SPI_send>
	SPI_deselect();
    1410:	0e 94 1f 0e 	call	0x1c3e	; 0x1c3e <SPI_deselect>
}
    1414:	cf 91       	pop	r28
    1416:	08 95       	ret

00001418 <MCP2515_bit_modify>:

//puts new_data in the selected reg_adress. the function assumes that you are allowed to change every bit in the register
void MCP2515_bit_modify(char reg_address, char masked_bits, char new_data) {
    1418:	1f 93       	push	r17
    141a:	cf 93       	push	r28
    141c:	df 93       	push	r29
    141e:	18 2f       	mov	r17, r24
    1420:	d6 2f       	mov	r29, r22
    1422:	c4 2f       	mov	r28, r20
	SPI_select();
    1424:	0e 94 1d 0e 	call	0x1c3a	; 0x1c3a <SPI_select>
	SPI_send(BIT_MODIFY);
    1428:	85 e0       	ldi	r24, 0x05	; 5
    142a:	0e 94 12 0e 	call	0x1c24	; 0x1c24 <SPI_send>
	SPI_send(reg_address);
    142e:	81 2f       	mov	r24, r17
    1430:	0e 94 12 0e 	call	0x1c24	; 0x1c24 <SPI_send>
	SPI_send(masked_bits);
    1434:	8d 2f       	mov	r24, r29
    1436:	0e 94 12 0e 	call	0x1c24	; 0x1c24 <SPI_send>
	SPI_send(new_data);
    143a:	8c 2f       	mov	r24, r28
    143c:	0e 94 12 0e 	call	0x1c24	; 0x1c24 <SPI_send>
	SPI_deselect();
    1440:	0e 94 1f 0e 	call	0x1c3e	; 0x1c3e <SPI_deselect>
}
    1444:	df 91       	pop	r29
    1446:	cf 91       	pop	r28
    1448:	1f 91       	pop	r17
    144a:	08 95       	ret

0000144c <MCP2515_reset>:

void MCP2515_reset() {
	SPI_select();
    144c:	0e 94 1d 0e 	call	0x1c3a	; 0x1c3a <SPI_select>
	SPI_send(RESET);
    1450:	80 ec       	ldi	r24, 0xC0	; 192
    1452:	0e 94 12 0e 	call	0x1c24	; 0x1c24 <SPI_send>
	SPI_deselect();
    1456:	0e 94 1f 0e 	call	0x1c3e	; 0x1c3e <SPI_deselect>
    145a:	08 95       	ret

0000145c <MCP2515_init>:
#define BIT_MODIFY 0x05
#define RTS_BASE 0x80


uint8_t MCP2515_init() {
	SPI_init();
    145c:	0e 94 00 0e 	call	0x1c00	; 0x1c00 <SPI_init>
	MCP2515_reset();
    1460:	0e 94 26 0a 	call	0x144c	; 0x144c <MCP2515_reset>
	//check bit 7-5 of MCP_CANSTAT which signify the operation mode
	const uint8_t device_mode = MCP2515_read(MCP_CANSTAT) & MODE_MASK;
    1464:	8e e0       	ldi	r24, 0x0E	; 14
    1466:	0e 94 da 09 	call	0x13b4	; 0x13b4 <MCP2515_read>
    146a:	80 7e       	andi	r24, 0xE0	; 224
	if (device_mode != MODE_CONFIG) {
    146c:	80 38       	cpi	r24, 0x80	; 128
    146e:	31 f0       	breq	.+12     	; 0x147c <MCP2515_init+0x20>
		printf("MCP2515 is NOT in configuration mode after reset!\n");
    1470:	85 ed       	ldi	r24, 0xD5	; 213
    1472:	92 e0       	ldi	r25, 0x02	; 2
    1474:	0e 94 4a 10 	call	0x2094	; 0x2094 <puts>
		return 1;
    1478:	81 e0       	ldi	r24, 0x01	; 1
    147a:	08 95       	ret
	}
	
	return 0;
    147c:	80 e0       	ldi	r24, 0x00	; 0
}
    147e:	08 95       	ret

00001480 <MENU_draw_current_menu>:
	current_entry = current_entry->parent_node;
	selected_entry = current_entry->child_node;
	MENU_draw_current_menu();
}

void MENU_draw_current_menu() {
    1480:	df 92       	push	r13
    1482:	ef 92       	push	r14
    1484:	ff 92       	push	r15
    1486:	0f 93       	push	r16
    1488:	1f 93       	push	r17
    148a:	cf 93       	push	r28
    148c:	df 93       	push	r29
	OLED_reset();
    148e:	0e 94 1e 0c 	call	0x183c	; 0x183c <OLED_reset>
	int output_row = 0;
	
	menu_entry* temp_node = current_entry->child_node;
    1492:	e0 91 dc 03 	lds	r30, 0x03DC
    1496:	f0 91 dd 03 	lds	r31, 0x03DD
    149a:	c4 81       	ldd	r28, Z+4	; 0x04
    149c:	d5 81       	ldd	r29, Z+5	; 0x05
	
	while( temp_node != NULL){
    149e:	20 97       	sbiw	r28, 0x00	; 0
    14a0:	61 f1       	breq	.+88     	; 0x14fa <MENU_draw_current_menu+0x7a>
    14a2:	d1 2c       	mov	r13, r1
		OLED_pos(output_row++, 0);
		if (temp_node == selected_entry) {
			OLED_print_arrow();
		}
		fprintf(OLED, " %s", temp_node->name);
    14a4:	0f 2e       	mov	r0, r31
    14a6:	fb ef       	ldi	r31, 0xFB	; 251
    14a8:	ef 2e       	mov	r14, r31
    14aa:	f1 e0       	ldi	r31, 0x01	; 1
    14ac:	ff 2e       	mov	r15, r31
    14ae:	f0 2d       	mov	r31, r0
    14b0:	00 e4       	ldi	r16, 0x40	; 64
    14b2:	11 e0       	ldi	r17, 0x01	; 1
	int output_row = 0;
	
	menu_entry* temp_node = current_entry->child_node;
	
	while( temp_node != NULL){
		OLED_pos(output_row++, 0);
    14b4:	60 e0       	ldi	r22, 0x00	; 0
    14b6:	8d 2d       	mov	r24, r13
    14b8:	0e 94 ef 0b 	call	0x17de	; 0x17de <OLED_pos>
		if (temp_node == selected_entry) {
    14bc:	20 91 da 03 	lds	r18, 0x03DA
    14c0:	30 91 db 03 	lds	r19, 0x03DB
    14c4:	c2 17       	cp	r28, r18
    14c6:	d3 07       	cpc	r29, r19
    14c8:	11 f4       	brne	.+4      	; 0x14ce <MENU_draw_current_menu+0x4e>
			OLED_print_arrow();
    14ca:	0e 94 b4 0c 	call	0x1968	; 0x1968 <OLED_print_arrow>
		}
		fprintf(OLED, " %s", temp_node->name);
    14ce:	89 81       	ldd	r24, Y+1	; 0x01
    14d0:	8f 93       	push	r24
    14d2:	88 81       	ld	r24, Y
    14d4:	8f 93       	push	r24
    14d6:	ff 92       	push	r15
    14d8:	ef 92       	push	r14
    14da:	1f 93       	push	r17
    14dc:	0f 93       	push	r16
    14de:	0e 94 dd 0f 	call	0x1fba	; 0x1fba <fprintf>
		temp_node = temp_node -> next_sibling_node;
    14e2:	0e 80       	ldd	r0, Y+6	; 0x06
    14e4:	df 81       	ldd	r29, Y+7	; 0x07
    14e6:	c0 2d       	mov	r28, r0
    14e8:	d3 94       	inc	r13
	OLED_reset();
	int output_row = 0;
	
	menu_entry* temp_node = current_entry->child_node;
	
	while( temp_node != NULL){
    14ea:	0f 90       	pop	r0
    14ec:	0f 90       	pop	r0
    14ee:	0f 90       	pop	r0
    14f0:	0f 90       	pop	r0
    14f2:	0f 90       	pop	r0
    14f4:	0f 90       	pop	r0
    14f6:	20 97       	sbiw	r28, 0x00	; 0
    14f8:	e9 f6       	brne	.-70     	; 0x14b4 <MENU_draw_current_menu+0x34>
			OLED_print_arrow();
		}
		fprintf(OLED, " %s", temp_node->name);
		temp_node = temp_node -> next_sibling_node;
	}
}
    14fa:	df 91       	pop	r29
    14fc:	cf 91       	pop	r28
    14fe:	1f 91       	pop	r17
    1500:	0f 91       	pop	r16
    1502:	ff 90       	pop	r15
    1504:	ef 90       	pop	r14
    1506:	df 90       	pop	r13
    1508:	08 95       	ret

0000150a <MENU_select_next>:
	MENU_draw_current_menu();
}


void MENU_select_next() {
	if (selected_entry -> next_sibling_node != NULL) {
    150a:	e0 91 da 03 	lds	r30, 0x03DA
    150e:	f0 91 db 03 	lds	r31, 0x03DB
    1512:	86 81       	ldd	r24, Z+6	; 0x06
    1514:	97 81       	ldd	r25, Z+7	; 0x07
    1516:	89 2b       	or	r24, r25
    1518:	41 f0       	breq	.+16     	; 0x152a <MENU_select_next+0x20>
		selected_entry = selected_entry -> next_sibling_node;
    151a:	86 81       	ldd	r24, Z+6	; 0x06
    151c:	97 81       	ldd	r25, Z+7	; 0x07
    151e:	90 93 db 03 	sts	0x03DB, r25
    1522:	80 93 da 03 	sts	0x03DA, r24
		MENU_draw_current_menu();
    1526:	0e 94 40 0a 	call	0x1480	; 0x1480 <MENU_draw_current_menu>
    152a:	08 95       	ret

0000152c <MENU_select_prev>:
	}
}

void MENU_select_prev() {
	if (selected_entry -> prev_sibling_node != NULL) {
    152c:	e0 91 da 03 	lds	r30, 0x03DA
    1530:	f0 91 db 03 	lds	r31, 0x03DB
    1534:	80 85       	ldd	r24, Z+8	; 0x08
    1536:	91 85       	ldd	r25, Z+9	; 0x09
    1538:	89 2b       	or	r24, r25
    153a:	41 f0       	breq	.+16     	; 0x154c <MENU_select_prev+0x20>
		selected_entry = selected_entry -> prev_sibling_node;
    153c:	80 85       	ldd	r24, Z+8	; 0x08
    153e:	91 85       	ldd	r25, Z+9	; 0x09
    1540:	90 93 db 03 	sts	0x03DB, r25
    1544:	80 93 da 03 	sts	0x03DA, r24
		MENU_draw_current_menu();
    1548:	0e 94 40 0a 	call	0x1480	; 0x1480 <MENU_draw_current_menu>
    154c:	08 95       	ret

0000154e <MENU_enter_selection>:
	}
}

void MENU_enter_selection() {
	if (selected_entry->function_ptr != NULL) {
    154e:	e0 91 da 03 	lds	r30, 0x03DA
    1552:	f0 91 db 03 	lds	r31, 0x03DB
    1556:	82 85       	ldd	r24, Z+10	; 0x0a
    1558:	93 85       	ldd	r25, Z+11	; 0x0b
    155a:	89 2b       	or	r24, r25
    155c:	31 f0       	breq	.+12     	; 0x156a <MENU_enter_selection+0x1c>
		selected_entry->function_ptr();
    155e:	02 84       	ldd	r0, Z+10	; 0x0a
    1560:	f3 85       	ldd	r31, Z+11	; 0x0b
    1562:	e0 2d       	mov	r30, r0
    1564:	09 95       	icall
		MENU_draw_current_menu();
    1566:	0e 94 40 0a 	call	0x1480	; 0x1480 <MENU_draw_current_menu>
	}
	
	if (selected_entry->child_node == NULL) return;
    156a:	e0 91 da 03 	lds	r30, 0x03DA
    156e:	f0 91 db 03 	lds	r31, 0x03DB
    1572:	84 81       	ldd	r24, Z+4	; 0x04
    1574:	95 81       	ldd	r25, Z+5	; 0x05
    1576:	89 2b       	or	r24, r25
    1578:	61 f0       	breq	.+24     	; 0x1592 <MENU_enter_selection+0x44>
	
	current_entry = selected_entry;
    157a:	f0 93 dd 03 	sts	0x03DD, r31
    157e:	e0 93 dc 03 	sts	0x03DC, r30
	selected_entry = current_entry->child_node;
    1582:	84 81       	ldd	r24, Z+4	; 0x04
    1584:	95 81       	ldd	r25, Z+5	; 0x05
    1586:	90 93 db 03 	sts	0x03DB, r25
    158a:	80 93 da 03 	sts	0x03DA, r24
	MENU_draw_current_menu();
    158e:	0e 94 40 0a 	call	0x1480	; 0x1480 <MENU_draw_current_menu>
    1592:	08 95       	ret

00001594 <MENU_go_back>:
}

void MENU_go_back() {
	if (current_entry->parent_node == NULL) return;
    1594:	e0 91 dc 03 	lds	r30, 0x03DC
    1598:	f0 91 dd 03 	lds	r31, 0x03DD
    159c:	82 81       	ldd	r24, Z+2	; 0x02
    159e:	93 81       	ldd	r25, Z+3	; 0x03
    15a0:	89 2b       	or	r24, r25
    15a2:	79 f0       	breq	.+30     	; 0x15c2 <MENU_go_back+0x2e>
	
	current_entry = current_entry->parent_node;
    15a4:	02 80       	ldd	r0, Z+2	; 0x02
    15a6:	f3 81       	ldd	r31, Z+3	; 0x03
    15a8:	e0 2d       	mov	r30, r0
    15aa:	f0 93 dd 03 	sts	0x03DD, r31
    15ae:	e0 93 dc 03 	sts	0x03DC, r30
	selected_entry = current_entry->child_node;
    15b2:	84 81       	ldd	r24, Z+4	; 0x04
    15b4:	95 81       	ldd	r25, Z+5	; 0x05
    15b6:	90 93 db 03 	sts	0x03DB, r25
    15ba:	80 93 da 03 	sts	0x03DA, r24
	MENU_draw_current_menu();
    15be:	0e 94 40 0a 	call	0x1480	; 0x1480 <MENU_draw_current_menu>
    15c2:	08 95       	ret

000015c4 <MENU_run>:
		fprintf(OLED, " %s", temp_node->name);
		temp_node = temp_node -> next_sibling_node;
	}
}

void MENU_run() {
    15c4:	cf 93       	push	r28
	bool change = false;
	if (JOY_getDirection() == DOWN) {
    15c6:	0e 94 c7 05 	call	0xb8e	; 0xb8e <JOY_getDirection>
    15ca:	83 30       	cpi	r24, 0x03	; 3
    15cc:	21 f4       	brne	.+8      	; 0x15d6 <MENU_run+0x12>
		MENU_select_next();
    15ce:	0e 94 85 0a 	call	0x150a	; 0x150a <MENU_select_next>
		change = true;
    15d2:	c1 e0       	ldi	r28, 0x01	; 1
    15d4:	09 c0       	rjmp	.+18     	; 0x15e8 <MENU_run+0x24>
	} 
	else if (JOY_getDirection() == UP) {
    15d6:	0e 94 c7 05 	call	0xb8e	; 0xb8e <JOY_getDirection>
    15da:	82 30       	cpi	r24, 0x02	; 2
    15dc:	21 f4       	brne	.+8      	; 0x15e6 <MENU_run+0x22>
		MENU_select_prev();
    15de:	0e 94 96 0a 	call	0x152c	; 0x152c <MENU_select_prev>
		change = true;
    15e2:	c1 e0       	ldi	r28, 0x01	; 1
    15e4:	01 c0       	rjmp	.+2      	; 0x15e8 <MENU_run+0x24>
		temp_node = temp_node -> next_sibling_node;
	}
}

void MENU_run() {
	bool change = false;
    15e6:	c0 e0       	ldi	r28, 0x00	; 0
	else if (JOY_getDirection() == UP) {
		MENU_select_prev();
		change = true;
	}
	
	if (JOY_button_pressed(JOY_BUTTON)) {
    15e8:	82 e0       	ldi	r24, 0x02	; 2
    15ea:	0e 94 7b 05 	call	0xaf6	; 0xaf6 <JOY_button_pressed>
    15ee:	89 2b       	or	r24, r25
    15f0:	19 f0       	breq	.+6      	; 0x15f8 <MENU_run+0x34>
		MENU_enter_selection();
    15f2:	0e 94 a7 0a 	call	0x154e	; 0x154e <MENU_enter_selection>
    15f6:	0a c0       	rjmp	.+20     	; 0x160c <MENU_run+0x48>
		change = true;
	}
	else if (JOY_button_pressed(LEFT_BUTTON)) {
    15f8:	80 e0       	ldi	r24, 0x00	; 0
    15fa:	0e 94 7b 05 	call	0xaf6	; 0xaf6 <JOY_button_pressed>
    15fe:	89 2b       	or	r24, r25
    1600:	19 f0       	breq	.+6      	; 0x1608 <MENU_run+0x44>
		MENU_go_back();
    1602:	0e 94 ca 0a 	call	0x1594	; 0x1594 <MENU_go_back>
    1606:	02 c0       	rjmp	.+4      	; 0x160c <MENU_run+0x48>
		change = true;
	}
	
	// Make sure the selection doesn't move multiple places at once.
	if (change){
    1608:	cc 23       	and	r28, r28
    160a:	49 f0       	breq	.+18     	; 0x161e <MENU_run+0x5a>
    160c:	22 e3       	ldi	r18, 0x32	; 50
    160e:	83 ed       	ldi	r24, 0xD3	; 211
    1610:	93 e0       	ldi	r25, 0x03	; 3
    1612:	21 50       	subi	r18, 0x01	; 1
    1614:	80 40       	sbci	r24, 0x00	; 0
    1616:	90 40       	sbci	r25, 0x00	; 0
    1618:	e1 f7       	brne	.-8      	; 0x1612 <MENU_run+0x4e>
    161a:	00 c0       	rjmp	.+0      	; 0x161c <MENU_run+0x58>
    161c:	00 c0       	rjmp	.+0      	; 0x161e <MENU_run+0x5a>
		_delay_ms(255);
		change = false;
	}
}
    161e:	cf 91       	pop	r28
    1620:	08 95       	ret

00001622 <add_entry>:


menu_entry* add_entry(menu_entry* parent_node, char* name, void* function_ptr){
    1622:	ef 92       	push	r14
    1624:	ff 92       	push	r15
    1626:	0f 93       	push	r16
    1628:	1f 93       	push	r17
    162a:	cf 93       	push	r28
    162c:	df 93       	push	r29
    162e:	ec 01       	movw	r28, r24
    1630:	7b 01       	movw	r14, r22
    1632:	8a 01       	movw	r16, r20
	
	// Create the new node
	menu_entry* new_entry = (menu_entry*) malloc(sizeof(menu_entry));
    1634:	8c e0       	ldi	r24, 0x0C	; 12
    1636:	90 e0       	ldi	r25, 0x00	; 0
    1638:	0e 94 6b 0e 	call	0x1cd6	; 0x1cd6 <malloc>
    163c:	dc 01       	movw	r26, r24
	new_entry->name = name;
    163e:	11 96       	adiw	r26, 0x01	; 1
    1640:	fc 92       	st	X, r15
    1642:	ee 92       	st	-X, r14
	new_entry->parent_node = parent_node;
    1644:	13 96       	adiw	r26, 0x03	; 3
    1646:	dc 93       	st	X, r29
    1648:	ce 93       	st	-X, r28
    164a:	12 97       	sbiw	r26, 0x02	; 2
	new_entry->child_node = NULL;  // A new node has no children
    164c:	15 96       	adiw	r26, 0x05	; 5
    164e:	1c 92       	st	X, r1
    1650:	1e 92       	st	-X, r1
    1652:	14 97       	sbiw	r26, 0x04	; 4
	new_entry->next_sibling_node = NULL;  // The new child is the last child
    1654:	17 96       	adiw	r26, 0x07	; 7
    1656:	1c 92       	st	X, r1
    1658:	1e 92       	st	-X, r1
    165a:	16 97       	sbiw	r26, 0x06	; 6
	new_entry->prev_sibling_node = NULL;
    165c:	19 96       	adiw	r26, 0x09	; 9
    165e:	1c 92       	st	X, r1
    1660:	1e 92       	st	-X, r1
    1662:	18 97       	sbiw	r26, 0x08	; 8
	new_entry->function_ptr = function_ptr;
    1664:	1b 96       	adiw	r26, 0x0b	; 11
    1666:	1c 93       	st	X, r17
    1668:	0e 93       	st	-X, r16
    166a:	1a 97       	sbiw	r26, 0x0a	; 10
	
	// If the node has no parent, just return the node.
	if (parent_node == NULL) return new_entry;
    166c:	20 97       	sbiw	r28, 0x00	; 0
    166e:	a1 f0       	breq	.+40     	; 0x1698 <add_entry+0x76>
	
	// If the parent does not have any other children, point the parent directly at the child.
	if (parent_node->child_node == NULL) {
    1670:	ec 81       	ldd	r30, Y+4	; 0x04
    1672:	fd 81       	ldd	r31, Y+5	; 0x05
    1674:	30 97       	sbiw	r30, 0x00	; 0
    1676:	19 f4       	brne	.+6      	; 0x167e <add_entry+0x5c>
		parent_node->child_node = new_entry;
    1678:	9d 83       	std	Y+5, r25	; 0x05
    167a:	8c 83       	std	Y+4, r24	; 0x04
    167c:	0d c0       	rjmp	.+26     	; 0x1698 <add_entry+0x76>
	else {
		// The first child of the parent
		menu_entry* temp_node = parent_node->child_node;
		
		// Keep going until you reach the last child (that has no younger sibling)
		while (temp_node->next_sibling_node != NULL) {
    167e:	26 81       	ldd	r18, Z+6	; 0x06
    1680:	37 81       	ldd	r19, Z+7	; 0x07
    1682:	21 15       	cp	r18, r1
    1684:	31 05       	cpc	r19, r1
    1686:	11 f0       	breq	.+4      	; 0x168c <add_entry+0x6a>
			//printf("temp_node->next_sibling_node->name: %s\n", temp_node->next_sibling_node->name);
			temp_node = temp_node->next_sibling_node;
    1688:	f9 01       	movw	r30, r18
    168a:	f9 cf       	rjmp	.-14     	; 0x167e <add_entry+0x5c>
		}
		
		// Bind the new node to the current last child to become the new last child.
		temp_node->next_sibling_node = new_entry;
    168c:	b7 83       	std	Z+7, r27	; 0x07
    168e:	a6 83       	std	Z+6, r26	; 0x06
		new_entry->prev_sibling_node = temp_node;
    1690:	19 96       	adiw	r26, 0x09	; 9
    1692:	fc 93       	st	X, r31
    1694:	ee 93       	st	-X, r30
    1696:	18 97       	sbiw	r26, 0x08	; 8
	}
	
	// Parent/child/sibling bindings complete. Return the new node.
	return new_entry;
}
    1698:	cd 01       	movw	r24, r26
    169a:	df 91       	pop	r29
    169c:	cf 91       	pop	r28
    169e:	1f 91       	pop	r17
    16a0:	0f 91       	pop	r16
    16a2:	ff 90       	pop	r15
    16a4:	ef 90       	pop	r14
    16a6:	08 95       	ret

000016a8 <MENU_init>:
volatile menu_entry* selected_entry;




void MENU_init() {
    16a8:	cf 92       	push	r12
    16aa:	df 92       	push	r13
    16ac:	ef 92       	push	r14
    16ae:	ff 92       	push	r15
    16b0:	0f 93       	push	r16
    16b2:	1f 93       	push	r17
    16b4:	cf 93       	push	r28
    16b6:	df 93       	push	r29
	menu_entry* main_menu = add_entry(NULL, "Main menu", NULL);
    16b8:	40 e0       	ldi	r20, 0x00	; 0
    16ba:	50 e0       	ldi	r21, 0x00	; 0
    16bc:	67 e0       	ldi	r22, 0x07	; 7
    16be:	73 e0       	ldi	r23, 0x03	; 3
    16c0:	80 e0       	ldi	r24, 0x00	; 0
    16c2:	90 e0       	ldi	r25, 0x00	; 0
    16c4:	0e 94 11 0b 	call	0x1622	; 0x1622 <add_entry>
    16c8:	ec 01       	movw	r28, r24
	
	// Main menu
	menu_entry* play = add_entry(main_menu, "Play game", game_play);
    16ca:	47 e1       	ldi	r20, 0x17	; 23
    16cc:	54 e0       	ldi	r21, 0x04	; 4
    16ce:	61 e1       	ldi	r22, 0x11	; 17
    16d0:	73 e0       	ldi	r23, 0x03	; 3
    16d2:	0e 94 11 0b 	call	0x1622	; 0x1622 <add_entry>
    16d6:	8c 01       	movw	r16, r24
	add_entry(main_menu, "Highscore", print_highscore);
    16d8:	43 e5       	ldi	r20, 0x53	; 83
    16da:	54 e0       	ldi	r21, 0x04	; 4
    16dc:	6b e1       	ldi	r22, 0x1B	; 27
    16de:	73 e0       	ldi	r23, 0x03	; 3
    16e0:	ce 01       	movw	r24, r28
    16e2:	0e 94 11 0b 	call	0x1622	; 0x1622 <add_entry>
	menu_entry* settings = add_entry(main_menu, "Settings", NULL);
    16e6:	40 e0       	ldi	r20, 0x00	; 0
    16e8:	50 e0       	ldi	r21, 0x00	; 0
    16ea:	65 e2       	ldi	r22, 0x25	; 37
    16ec:	73 e0       	ldi	r23, 0x03	; 3
    16ee:	ce 01       	movw	r24, r28
    16f0:	0e 94 11 0b 	call	0x1622	; 0x1622 <add_entry>
    16f4:	6c 01       	movw	r12, r24
	menu_entry* extras = add_entry(main_menu, "Extra features", NULL);
    16f6:	40 e0       	ldi	r20, 0x00	; 0
    16f8:	50 e0       	ldi	r21, 0x00	; 0
    16fa:	62 e8       	ldi	r22, 0x82	; 130
    16fc:	73 e0       	ldi	r23, 0x03	; 3
    16fe:	ce 01       	movw	r24, r28
    1700:	0e 94 11 0b 	call	0x1622	; 0x1622 <add_entry>
    1704:	7c 01       	movw	r14, r24
	
	
	// Sub-menu settings
	menu_entry* brightness = add_entry(settings, "Brightness", brightness_run);
    1706:	4a e5       	ldi	r20, 0x5A	; 90
    1708:	52 e0       	ldi	r21, 0x02	; 2
    170a:	6e e2       	ldi	r22, 0x2E	; 46
    170c:	73 e0       	ldi	r23, 0x03	; 3
    170e:	c6 01       	movw	r24, r12
    1710:	0e 94 11 0b 	call	0x1622	; 0x1622 <add_entry>
	//menu_entry* font = add_entry(settings, "Set font", NULL);
	
	// Sub-menu extras
	menu_entry* keyboard = add_entry(extras, "Keyboard", keyboard_run);
    1714:	42 e4       	ldi	r20, 0x42	; 66
    1716:	59 e0       	ldi	r21, 0x09	; 9
    1718:	69 e3       	ldi	r22, 0x39	; 57
    171a:	73 e0       	ldi	r23, 0x03	; 3
    171c:	c7 01       	movw	r24, r14
    171e:	0e 94 11 0b 	call	0x1622	; 0x1622 <add_entry>
	//menu_entry* mandelbrot = add_entry(extras, "Mandelbrot", NULL);
	//menu_entry* pong = add_entry(extras, "Play pong", NULL);
	//menu_entry* rcube = add_entry(extras, "rotating cube", NULL);
	
	current_entry = main_menu;
    1722:	d0 93 dd 03 	sts	0x03DD, r29
    1726:	c0 93 dc 03 	sts	0x03DC, r28
	selected_entry = play;
    172a:	10 93 db 03 	sts	0x03DB, r17
    172e:	00 93 da 03 	sts	0x03DA, r16
	MENU_draw_current_menu();
    1732:	0e 94 40 0a 	call	0x1480	; 0x1480 <MENU_draw_current_menu>
}
    1736:	df 91       	pop	r29
    1738:	cf 91       	pop	r28
    173a:	1f 91       	pop	r17
    173c:	0f 91       	pop	r16
    173e:	ff 90       	pop	r15
    1740:	ef 90       	pop	r14
    1742:	df 90       	pop	r13
    1744:	cf 90       	pop	r12
    1746:	08 95       	ret

00001748 <initialize>:
#include <stdbool.h>

void send_control_input(void);

void initialize(void){
	cli();
    1748:	f8 94       	cli
	usart_init(MYUBRR); 
    174a:	8f e1       	ldi	r24, 0x1F	; 31
    174c:	90 e0       	ldi	r25, 0x00	; 0
    174e:	0e 94 36 0e 	call	0x1c6c	; 0x1c6c <usart_init>
	SRAM_init();
    1752:	0e 94 21 0e 	call	0x1c42	; 0x1c42 <SRAM_init>
	ADC_init();
    1756:	0e 94 03 02 	call	0x406	; 0x406 <ADC_init>
	JOY_init(CALIBRATION_DEFAULT);
    175a:	80 e0       	ldi	r24, 0x00	; 0
    175c:	90 e0       	ldi	r25, 0x00	; 0
    175e:	0e 94 73 05 	call	0xae6	; 0xae6 <JOY_init>
	OLED_init();
    1762:	0e 94 23 0c 	call	0x1846	; 0x1846 <OLED_init>
	MENU_init();
    1766:	0e 94 54 0b 	call	0x16a8	; 0x16a8 <MENU_init>
	CAN_init();
    176a:	0e 94 ad 02 	call	0x55a	; 0x55a <CAN_init>
	sei();
    176e:	78 94       	sei
    1770:	08 95       	ret

00001772 <main>:
}



int main(void) {
	initialize();
    1772:	0e 94 a4 0b 	call	0x1748	; 0x1748 <initialize>
	printf("Initialization of Node 1 complete!\n\n");
    1776:	82 e4       	ldi	r24, 0x42	; 66
    1778:	93 e0       	ldi	r25, 0x03	; 3
    177a:	0e 94 4a 10 	call	0x2094	; 0x2094 <puts>
	while(1) {
		MENU_run();
    177e:	0e 94 e2 0a 	call	0x15c4	; 0x15c4 <MENU_run>
    1782:	fd cf       	rjmp	.-6      	; 0x177e <main+0xc>

00001784 <write_data>:
void write_cmd(uint8_t cmd){
	*cmd_address = cmd;
}

void write_data(uint8_t data){
	*data_address = data;
    1784:	e0 91 50 01 	lds	r30, 0x0150
    1788:	f0 91 51 01 	lds	r31, 0x0151
    178c:	80 83       	st	Z, r24
    178e:	08 95       	ret

00001790 <OLED_goto_line>:
	OLED_goto_line(line);
	OLED_goto_column(column);
}

void OLED_goto_line(uint8_t line){
	if (line < 0 || line > 7) 
    1790:	88 30       	cpi	r24, 0x08	; 8
    1792:	60 f4       	brcc	.+24     	; 0x17ac <OLED_goto_line+0x1c>
		return;
	
	write_cmd(0xB0 + line);
    1794:	90 eb       	ldi	r25, 0xB0	; 176
    1796:	98 0f       	add	r25, r24

/************************************************************************/
/* FUNCTION IMPLEMENTATIONS                                             */
/************************************************************************/
void write_cmd(uint8_t cmd){
	*cmd_address = cmd;
    1798:	e0 91 4e 01 	lds	r30, 0x014E
    179c:	f0 91 4f 01 	lds	r31, 0x014F
    17a0:	90 83       	st	Z, r25
void OLED_goto_line(uint8_t line){
	if (line < 0 || line > 7) 
		return;
	
	write_cmd(0xB0 + line);
	current_line = line;
    17a2:	90 e0       	ldi	r25, 0x00	; 0
    17a4:	90 93 a9 03 	sts	0x03A9, r25
    17a8:	80 93 a8 03 	sts	0x03A8, r24
    17ac:	08 95       	ret

000017ae <OLED_goto_column>:
}

void OLED_goto_column(uint8_t column){
	if (column < 0 || column > 127) 
    17ae:	88 23       	and	r24, r24
    17b0:	ac f0       	brlt	.+42     	; 0x17dc <OLED_goto_column+0x2e>
		return;
	
	write_cmd(0x00 + column%16); // Lower column register
    17b2:	98 2f       	mov	r25, r24
    17b4:	9f 70       	andi	r25, 0x0F	; 15

/************************************************************************/
/* FUNCTION IMPLEMENTATIONS                                             */
/************************************************************************/
void write_cmd(uint8_t cmd){
	*cmd_address = cmd;
    17b6:	e0 91 4e 01 	lds	r30, 0x014E
    17ba:	f0 91 4f 01 	lds	r31, 0x014F
    17be:	90 83       	st	Z, r25
void OLED_goto_column(uint8_t column){
	if (column < 0 || column > 127) 
		return;
	
	write_cmd(0x00 + column%16); // Lower column register
	write_cmd(0x10 + column/16); // Higher column register
    17c0:	98 2f       	mov	r25, r24
    17c2:	92 95       	swap	r25
    17c4:	9f 70       	andi	r25, 0x0F	; 15
    17c6:	90 5f       	subi	r25, 0xF0	; 240

/************************************************************************/
/* FUNCTION IMPLEMENTATIONS                                             */
/************************************************************************/
void write_cmd(uint8_t cmd){
	*cmd_address = cmd;
    17c8:	e0 91 4e 01 	lds	r30, 0x014E
    17cc:	f0 91 4f 01 	lds	r31, 0x014F
    17d0:	90 83       	st	Z, r25
	if (column < 0 || column > 127) 
		return;
	
	write_cmd(0x00 + column%16); // Lower column register
	write_cmd(0x10 + column/16); // Higher column register
	current_column = column;
    17d2:	90 e0       	ldi	r25, 0x00	; 0
    17d4:	90 93 a7 03 	sts	0x03A7, r25
    17d8:	80 93 a6 03 	sts	0x03A6, r24
    17dc:	08 95       	ret

000017de <OLED_pos>:
	for (int column = 0; column < OLED_COLUMN_COUNT; column++) {
		write_data(0x00);
	}
}

void OLED_pos(uint8_t line, uint8_t column) {
    17de:	cf 93       	push	r28
    17e0:	c6 2f       	mov	r28, r22
	if (line < 0 || line > 7 || column < 0 || column > 127) {
    17e2:	88 30       	cpi	r24, 0x08	; 8
    17e4:	10 f4       	brcc	.+4      	; 0x17ea <OLED_pos+0xc>
    17e6:	66 23       	and	r22, r22
    17e8:	2c f4       	brge	.+10     	; 0x17f4 <OLED_pos+0x16>
		printf("Out of range in OLED_pos()\n");
    17ea:	86 e6       	ldi	r24, 0x66	; 102
    17ec:	93 e0       	ldi	r25, 0x03	; 3
    17ee:	0e 94 4a 10 	call	0x2094	; 0x2094 <puts>
		return; 
    17f2:	05 c0       	rjmp	.+10     	; 0x17fe <OLED_pos+0x20>
	}
	
	OLED_goto_line(line);
    17f4:	0e 94 c8 0b 	call	0x1790	; 0x1790 <OLED_goto_line>
	OLED_goto_column(column);
    17f8:	8c 2f       	mov	r24, r28
    17fa:	0e 94 d7 0b 	call	0x17ae	; 0x17ae <OLED_goto_column>
}
    17fe:	cf 91       	pop	r28
    1800:	08 95       	ret

00001802 <OLED_reset_cursor>:
	OLED_clear_screen();
	OLED_reset_cursor();
}

void OLED_reset_cursor(){
	OLED_pos(0,0);
    1802:	60 e0       	ldi	r22, 0x00	; 0
    1804:	80 e0       	ldi	r24, 0x00	; 0
    1806:	0e 94 ef 0b 	call	0x17de	; 0x17de <OLED_pos>
    180a:	08 95       	ret

0000180c <OLED_clear_line>:
		OLED_clear_line(page);
	}
}

void OLED_clear_line(uint8_t line) {
	OLED_pos(line, 0);
    180c:	60 e0       	ldi	r22, 0x00	; 0
    180e:	0e 94 ef 0b 	call	0x17de	; 0x17de <OLED_pos>
    1812:	80 e8       	ldi	r24, 0x80	; 128
    1814:	90 e0       	ldi	r25, 0x00	; 0
void write_cmd(uint8_t cmd){
	*cmd_address = cmd;
}

void write_data(uint8_t data){
	*data_address = data;
    1816:	e0 91 50 01 	lds	r30, 0x0150
    181a:	f0 91 51 01 	lds	r31, 0x0151
    181e:	10 82       	st	Z, r1
    1820:	01 97       	sbiw	r24, 0x01	; 1
	}
}

void OLED_clear_line(uint8_t line) {
	OLED_pos(line, 0);
	for (int column = 0; column < OLED_COLUMN_COUNT; column++) {
    1822:	00 97       	sbiw	r24, 0x00	; 0
    1824:	c1 f7       	brne	.-16     	; 0x1816 <OLED_clear_line+0xa>
		write_data(0x00);
	}
}
    1826:	08 95       	ret

00001828 <OLED_clear_screen>:

void OLED_reset_cursor(){
	OLED_pos(0,0);
}

void OLED_clear_screen() {
    1828:	cf 93       	push	r28
    182a:	c0 e0       	ldi	r28, 0x00	; 0
	for(int page = 0; page < OLED_PAGE_COUNT; page++) {
		OLED_clear_line(page);
    182c:	8c 2f       	mov	r24, r28
    182e:	0e 94 06 0c 	call	0x180c	; 0x180c <OLED_clear_line>
    1832:	cf 5f       	subi	r28, 0xFF	; 255
void OLED_reset_cursor(){
	OLED_pos(0,0);
}

void OLED_clear_screen() {
	for(int page = 0; page < OLED_PAGE_COUNT; page++) {
    1834:	c8 30       	cpi	r28, 0x08	; 8
    1836:	d1 f7       	brne	.-12     	; 0x182c <OLED_clear_screen+0x4>
		OLED_clear_line(page);
	}
}
    1838:	cf 91       	pop	r28
    183a:	08 95       	ret

0000183c <OLED_reset>:
	}
	OLED_reset();
}

void OLED_reset() {
	OLED_clear_screen();
    183c:	0e 94 14 0c 	call	0x1828	; 0x1828 <OLED_clear_screen>
	OLED_reset_cursor();
    1840:	0e 94 01 0c 	call	0x1802	; 0x1802 <OLED_reset_cursor>
    1844:	08 95       	ret

00001846 <OLED_init>:

void write_data(uint8_t data){
	*data_address = data;
}

void OLED_init(){
    1846:	cf 93       	push	r28
    1848:	df 93       	push	r29
    184a:	cd b7       	in	r28, 0x3d	; 61
    184c:	de b7       	in	r29, 0x3e	; 62
    184e:	67 97       	sbiw	r28, 0x17	; 23
    1850:	0f b6       	in	r0, 0x3f	; 63
    1852:	f8 94       	cli
    1854:	de bf       	out	0x3e, r29	; 62
    1856:	0f be       	out	0x3f, r0	; 63
    1858:	cd bf       	out	0x3d, r28	; 61
	const char commands[] = {
    185a:	87 e1       	ldi	r24, 0x17	; 23
    185c:	e2 e5       	ldi	r30, 0x52	; 82
    185e:	f1 e0       	ldi	r31, 0x01	; 1
    1860:	de 01       	movw	r26, r28
    1862:	11 96       	adiw	r26, 0x01	; 1
    1864:	01 90       	ld	r0, Z+
    1866:	0d 92       	st	X+, r0
    1868:	8a 95       	dec	r24
    186a:	e1 f7       	brne	.-8      	; 0x1864 <OLED_init+0x1e>
    186c:	fe 01       	movw	r30, r28
    186e:	31 96       	adiw	r30, 0x01	; 1
    1870:	ce 01       	movw	r24, r28
    1872:	48 96       	adiw	r24, 0x18	; 24
		0xAF  // Display on
	};
	
	const int command_count = sizeof(commands)/sizeof(commands[0]);
	for (int i = 0; i < command_count; i++) {
		write_cmd(commands[i]);
    1874:	21 91       	ld	r18, Z+

/************************************************************************/
/* FUNCTION IMPLEMENTATIONS                                             */
/************************************************************************/
void write_cmd(uint8_t cmd){
	*cmd_address = cmd;
    1876:	a0 91 4e 01 	lds	r26, 0x014E
    187a:	b0 91 4f 01 	lds	r27, 0x014F
    187e:	2c 93       	st	X, r18
		0xA6, // Set normal display
		0xAF  // Display on
	};
	
	const int command_count = sizeof(commands)/sizeof(commands[0]);
	for (int i = 0; i < command_count; i++) {
    1880:	e8 17       	cp	r30, r24
    1882:	f9 07       	cpc	r31, r25
    1884:	b9 f7       	brne	.-18     	; 0x1874 <OLED_init+0x2e>
		write_cmd(commands[i]);
	}
	OLED_reset();
    1886:	0e 94 1e 0c 	call	0x183c	; 0x183c <OLED_reset>
}
    188a:	67 96       	adiw	r28, 0x17	; 23
    188c:	0f b6       	in	r0, 0x3f	; 63
    188e:	f8 94       	cli
    1890:	de bf       	out	0x3e, r29	; 62
    1892:	0f be       	out	0x3f, r0	; 63
    1894:	cd bf       	out	0x3d, r28	; 61
    1896:	df 91       	pop	r29
    1898:	cf 91       	pop	r28
    189a:	08 95       	ret

0000189c <OLED_print_char>:

void OLED_print_char(char character){
	uint8_t ascii_starting_point = 32;
	uint16_t letter_index = character - ascii_starting_point;
	
	switch (character) {
    189c:	8a 30       	cpi	r24, 0x0A	; 10
    189e:	29 f0       	breq	.+10     	; 0x18aa <OLED_print_char+0xe>
    18a0:	8d 30       	cpi	r24, 0x0D	; 13
    18a2:	61 f0       	breq	.+24     	; 0x18bc <OLED_print_char+0x20>
    18a4:	81 11       	cpse	r24, r1
    18a6:	12 c0       	rjmp	.+36     	; 0x18cc <OLED_print_char+0x30>
    18a8:	08 95       	ret
		case '\0'  :
		break;
		
		case '\n'  :  
		// Reset cursor and move it to the next line
		OLED_pos(current_line + 1, 0);  
    18aa:	80 91 a8 03 	lds	r24, 0x03A8
    18ae:	90 91 a9 03 	lds	r25, 0x03A9
    18b2:	60 e0       	ldi	r22, 0x00	; 0
    18b4:	8f 5f       	subi	r24, 0xFF	; 255
    18b6:	0e 94 ef 0b 	call	0x17de	; 0x17de <OLED_pos>
		break;
    18ba:	08 95       	ret
		
		case '\r'  :  
		// Reset cursor to start of current line
		OLED_pos(current_line, 0);  
    18bc:	80 91 a8 03 	lds	r24, 0x03A8
    18c0:	90 91 a9 03 	lds	r25, 0x03A9
    18c4:	60 e0       	ldi	r22, 0x00	; 0
    18c6:	0e 94 ef 0b 	call	0x17de	; 0x17de <OLED_pos>
		break;
    18ca:	08 95       	ret
    18cc:	e8 2f       	mov	r30, r24
    18ce:	f0 e0       	ldi	r31, 0x00	; 0
    18d0:	ee 0f       	add	r30, r30
    18d2:	ff 1f       	adc	r31, r31
    18d4:	ee 0f       	add	r30, r30
    18d6:	ff 1f       	adc	r31, r31
    18d8:	ee 0f       	add	r30, r30
    18da:	ff 1f       	adc	r31, r31
    18dc:	e0 53       	subi	r30, 0x30	; 48
    18de:	f0 40       	sbci	r31, 0x00	; 0

void OLED_print_char(char character){
	uint8_t ascii_starting_point = 32;
	uint16_t letter_index = character - ascii_starting_point;
	
	switch (character) {
    18e0:	80 e0       	ldi	r24, 0x00	; 0
    18e2:	90 e0       	ldi	r25, 0x00	; 0
		break;
		
		default :
		// Print character using the included fonts
		for (int col = 0; col < FONT_SIZE; col++){
			write_data(pgm_read_byte(&font8[letter_index][col]));
    18e4:	24 91       	lpm	r18, Z
void write_cmd(uint8_t cmd){
	*cmd_address = cmd;
}

void write_data(uint8_t data){
	*data_address = data;
    18e6:	a0 91 50 01 	lds	r26, 0x0150
    18ea:	b0 91 51 01 	lds	r27, 0x0151
    18ee:	2c 93       	st	X, r18
		OLED_pos(current_line, 0);  
		break;
		
		default :
		// Print character using the included fonts
		for (int col = 0; col < FONT_SIZE; col++){
    18f0:	01 96       	adiw	r24, 0x01	; 1
    18f2:	31 96       	adiw	r30, 0x01	; 1
    18f4:	88 30       	cpi	r24, 0x08	; 8
    18f6:	91 05       	cpc	r25, r1
    18f8:	a9 f7       	brne	.-22     	; 0x18e4 <OLED_print_char+0x48>
    18fa:	08 95       	ret

000018fc <OLED_set_brightness>:

/************************************************************************/
/* FUNCTION IMPLEMENTATIONS                                             */
/************************************************************************/
void write_cmd(uint8_t cmd){
	*cmd_address = cmd;
    18fc:	e0 91 4e 01 	lds	r30, 0x014E
    1900:	f0 91 4f 01 	lds	r31, 0x014F
    1904:	91 e8       	ldi	r25, 0x81	; 129
    1906:	90 83       	st	Z, r25
    1908:	e0 91 4e 01 	lds	r30, 0x014E
    190c:	f0 91 4f 01 	lds	r31, 0x014F
    1910:	80 83       	st	Z, r24
    1912:	08 95       	ret

00001914 <OLED_print_char_inverse>:
		}
	}
}

void OLED_print_char_inverse(char c) {
	if (c == '\0') return;
    1914:	88 23       	and	r24, r24
    1916:	c1 f0       	breq	.+48     	; 0x1948 <OLED_print_char_inverse+0x34>
	uint8_t ascii_starting_point = 32;
	uint16_t letter_index = c - ascii_starting_point;
    1918:	e8 2f       	mov	r30, r24
    191a:	f0 e0       	ldi	r31, 0x00	; 0
    191c:	ee 0f       	add	r30, r30
    191e:	ff 1f       	adc	r31, r31
    1920:	ee 0f       	add	r30, r30
    1922:	ff 1f       	adc	r31, r31
    1924:	ee 0f       	add	r30, r30
    1926:	ff 1f       	adc	r31, r31
    1928:	e0 53       	subi	r30, 0x30	; 48
    192a:	f0 40       	sbci	r31, 0x00	; 0
	for (int col = 0; col < FONT_SIZE; col++) {
    192c:	80 e0       	ldi	r24, 0x00	; 0
    192e:	90 e0       	ldi	r25, 0x00	; 0
		write_data(~pgm_read_byte(&font8[letter_index][col]));
    1930:	24 91       	lpm	r18, Z
    1932:	20 95       	com	r18
void write_cmd(uint8_t cmd){
	*cmd_address = cmd;
}

void write_data(uint8_t data){
	*data_address = data;
    1934:	a0 91 50 01 	lds	r26, 0x0150
    1938:	b0 91 51 01 	lds	r27, 0x0151
    193c:	2c 93       	st	X, r18

void OLED_print_char_inverse(char c) {
	if (c == '\0') return;
	uint8_t ascii_starting_point = 32;
	uint16_t letter_index = c - ascii_starting_point;
	for (int col = 0; col < FONT_SIZE; col++) {
    193e:	01 96       	adiw	r24, 0x01	; 1
    1940:	31 96       	adiw	r30, 0x01	; 1
    1942:	88 30       	cpi	r24, 0x08	; 8
    1944:	91 05       	cpc	r25, r1
    1946:	a1 f7       	brne	.-24     	; 0x1930 <OLED_print_char_inverse+0x1c>
    1948:	08 95       	ret

0000194a <OLED_set_line>:
	}
	OLED_reset_cursor();
}

void OLED_set_line(uint8_t line) {
	OLED_pos(line,0);
    194a:	60 e0       	ldi	r22, 0x00	; 0
    194c:	0e 94 ef 0b 	call	0x17de	; 0x17de <OLED_pos>
    1950:	80 e8       	ldi	r24, 0x80	; 128
    1952:	90 e0       	ldi	r25, 0x00	; 0
void write_cmd(uint8_t cmd){
	*cmd_address = cmd;
}

void write_data(uint8_t data){
	*data_address = data;
    1954:	2f ef       	ldi	r18, 0xFF	; 255
    1956:	e0 91 50 01 	lds	r30, 0x0150
    195a:	f0 91 51 01 	lds	r31, 0x0151
    195e:	20 83       	st	Z, r18
    1960:	01 97       	sbiw	r24, 0x01	; 1
	OLED_reset_cursor();
}

void OLED_set_line(uint8_t line) {
	OLED_pos(line,0);
	for (int column = 0; column < OLED_COLUMN_COUNT; column++) {
    1962:	00 97       	sbiw	r24, 0x00	; 0
    1964:	c1 f7       	brne	.-16     	; 0x1956 <OLED_set_line+0xc>
		write_data(0xFF);
	}
}
    1966:	08 95       	ret

00001968 <OLED_print_arrow>:
void write_cmd(uint8_t cmd){
	*cmd_address = cmd;
}

void write_data(uint8_t data){
	*data_address = data;
    1968:	e0 91 50 01 	lds	r30, 0x0150
    196c:	f0 91 51 01 	lds	r31, 0x0151
    1970:	88 e1       	ldi	r24, 0x18	; 24
    1972:	80 83       	st	Z, r24
    1974:	e0 91 50 01 	lds	r30, 0x0150
    1978:	f0 91 51 01 	lds	r31, 0x0151
    197c:	80 83       	st	Z, r24
    197e:	e0 91 50 01 	lds	r30, 0x0150
    1982:	f0 91 51 01 	lds	r31, 0x0151
    1986:	9e e7       	ldi	r25, 0x7E	; 126
    1988:	90 83       	st	Z, r25
    198a:	e0 91 50 01 	lds	r30, 0x0150
    198e:	f0 91 51 01 	lds	r31, 0x0151
    1992:	9c e3       	ldi	r25, 0x3C	; 60
    1994:	90 83       	st	Z, r25
    1996:	e0 91 50 01 	lds	r30, 0x0150
    199a:	f0 91 51 01 	lds	r31, 0x0151
    199e:	80 83       	st	Z, r24
    19a0:	08 95       	ret

000019a2 <print_blank>:
#include "OLED_driver.h"

#include <stdio.h>
#include <string.h>

void print_blank(int number) {
    19a2:	0f 93       	push	r16
    19a4:	1f 93       	push	r17
    19a6:	cf 93       	push	r28
    19a8:	df 93       	push	r29
    19aa:	8c 01       	movw	r16, r24
	for (int i = 0; i < number; i++) {
    19ac:	18 16       	cp	r1, r24
    19ae:	19 06       	cpc	r1, r25
    19b0:	54 f4       	brge	.+20     	; 0x19c6 <print_blank+0x24>
    19b2:	c0 e0       	ldi	r28, 0x00	; 0
    19b4:	d0 e0       	ldi	r29, 0x00	; 0
		write_data(0x00);
    19b6:	80 e0       	ldi	r24, 0x00	; 0
    19b8:	90 e0       	ldi	r25, 0x00	; 0
    19ba:	0e 94 c2 0b 	call	0x1784	; 0x1784 <write_data>

#include <stdio.h>
#include <string.h>

void print_blank(int number) {
	for (int i = 0; i < number; i++) {
    19be:	21 96       	adiw	r28, 0x01	; 1
    19c0:	c0 17       	cp	r28, r16
    19c2:	d1 07       	cpc	r29, r17
    19c4:	c1 f7       	brne	.-16     	; 0x19b6 <print_blank+0x14>
		write_data(0x00);
	}
}
    19c6:	df 91       	pop	r29
    19c8:	cf 91       	pop	r28
    19ca:	1f 91       	pop	r17
    19cc:	0f 91       	pop	r16
    19ce:	08 95       	ret

000019d0 <print_fill>:

void print_fill(int number) {
    19d0:	0f 93       	push	r16
    19d2:	1f 93       	push	r17
    19d4:	cf 93       	push	r28
    19d6:	df 93       	push	r29
    19d8:	8c 01       	movw	r16, r24
	for (int i = 0; i < number; i++) {
    19da:	18 16       	cp	r1, r24
    19dc:	19 06       	cpc	r1, r25
    19de:	54 f4       	brge	.+20     	; 0x19f4 <print_fill+0x24>
    19e0:	c0 e0       	ldi	r28, 0x00	; 0
    19e2:	d0 e0       	ldi	r29, 0x00	; 0
		write_data(0xFF);
    19e4:	8f ef       	ldi	r24, 0xFF	; 255
    19e6:	90 e0       	ldi	r25, 0x00	; 0
    19e8:	0e 94 c2 0b 	call	0x1784	; 0x1784 <write_data>
		write_data(0x00);
	}
}

void print_fill(int number) {
	for (int i = 0; i < number; i++) {
    19ec:	21 96       	adiw	r28, 0x01	; 1
    19ee:	c0 17       	cp	r28, r16
    19f0:	d1 07       	cpc	r29, r17
    19f2:	c1 f7       	brne	.-16     	; 0x19e4 <print_fill+0x14>
		write_data(0xFF);
	}
}
    19f4:	df 91       	pop	r29
    19f6:	cf 91       	pop	r28
    19f8:	1f 91       	pop	r17
    19fa:	0f 91       	pop	r16
    19fc:	08 95       	ret

000019fe <print_shift>:

void print_shift(int inverse) {
	if (!inverse) {
    19fe:	89 2b       	or	r24, r25
    1a00:	29 f5       	brne	.+74     	; 0x1a4c <print_shift+0x4e>
		print_blank(4);
    1a02:	84 e0       	ldi	r24, 0x04	; 4
    1a04:	90 e0       	ldi	r25, 0x00	; 0
    1a06:	0e 94 d1 0c 	call	0x19a2	; 0x19a2 <print_blank>
		//up-arrow
		write_data(0b00010000);
    1a0a:	80 e1       	ldi	r24, 0x10	; 16
    1a0c:	90 e0       	ldi	r25, 0x00	; 0
    1a0e:	0e 94 c2 0b 	call	0x1784	; 0x1784 <write_data>
		write_data(0b00011000);
    1a12:	88 e1       	ldi	r24, 0x18	; 24
    1a14:	90 e0       	ldi	r25, 0x00	; 0
    1a16:	0e 94 c2 0b 	call	0x1784	; 0x1784 <write_data>
		write_data(0b00111100);
    1a1a:	8c e3       	ldi	r24, 0x3C	; 60
    1a1c:	90 e0       	ldi	r25, 0x00	; 0
    1a1e:	0e 94 c2 0b 	call	0x1784	; 0x1784 <write_data>
		write_data(0b00111110);
    1a22:	8e e3       	ldi	r24, 0x3E	; 62
    1a24:	90 e0       	ldi	r25, 0x00	; 0
    1a26:	0e 94 c2 0b 	call	0x1784	; 0x1784 <write_data>
		write_data(0b00111100);
    1a2a:	8c e3       	ldi	r24, 0x3C	; 60
    1a2c:	90 e0       	ldi	r25, 0x00	; 0
    1a2e:	0e 94 c2 0b 	call	0x1784	; 0x1784 <write_data>
		write_data(0b00011000);
    1a32:	88 e1       	ldi	r24, 0x18	; 24
    1a34:	90 e0       	ldi	r25, 0x00	; 0
    1a36:	0e 94 c2 0b 	call	0x1784	; 0x1784 <write_data>
		write_data(0b00010000);
    1a3a:	80 e1       	ldi	r24, 0x10	; 16
    1a3c:	90 e0       	ldi	r25, 0x00	; 0
    1a3e:	0e 94 c2 0b 	call	0x1784	; 0x1784 <write_data>

		print_blank(5);
    1a42:	85 e0       	ldi	r24, 0x05	; 5
    1a44:	90 e0       	ldi	r25, 0x00	; 0
    1a46:	0e 94 d1 0c 	call	0x19a2	; 0x19a2 <print_blank>
    1a4a:	08 95       	ret
	}
	else {
		print_fill(4);
    1a4c:	84 e0       	ldi	r24, 0x04	; 4
    1a4e:	90 e0       	ldi	r25, 0x00	; 0
    1a50:	0e 94 e8 0c 	call	0x19d0	; 0x19d0 <print_fill>
		//up-arrow
		write_data(~0b00010000);
    1a54:	8f ee       	ldi	r24, 0xEF	; 239
    1a56:	9f ef       	ldi	r25, 0xFF	; 255
    1a58:	0e 94 c2 0b 	call	0x1784	; 0x1784 <write_data>
		write_data(~0b00011000);
    1a5c:	87 ee       	ldi	r24, 0xE7	; 231
    1a5e:	9f ef       	ldi	r25, 0xFF	; 255
    1a60:	0e 94 c2 0b 	call	0x1784	; 0x1784 <write_data>
		write_data(~0b00111100);
    1a64:	83 ec       	ldi	r24, 0xC3	; 195
    1a66:	9f ef       	ldi	r25, 0xFF	; 255
    1a68:	0e 94 c2 0b 	call	0x1784	; 0x1784 <write_data>
		write_data(~0b00111110);
    1a6c:	81 ec       	ldi	r24, 0xC1	; 193
    1a6e:	9f ef       	ldi	r25, 0xFF	; 255
    1a70:	0e 94 c2 0b 	call	0x1784	; 0x1784 <write_data>
		write_data(~0b00111100);
    1a74:	83 ec       	ldi	r24, 0xC3	; 195
    1a76:	9f ef       	ldi	r25, 0xFF	; 255
    1a78:	0e 94 c2 0b 	call	0x1784	; 0x1784 <write_data>
		write_data(~0b00011000);
    1a7c:	87 ee       	ldi	r24, 0xE7	; 231
    1a7e:	9f ef       	ldi	r25, 0xFF	; 255
    1a80:	0e 94 c2 0b 	call	0x1784	; 0x1784 <write_data>
		write_data(~0b00010000);
    1a84:	8f ee       	ldi	r24, 0xEF	; 239
    1a86:	9f ef       	ldi	r25, 0xFF	; 255
    1a88:	0e 94 c2 0b 	call	0x1784	; 0x1784 <write_data>
		print_fill(5);
    1a8c:	85 e0       	ldi	r24, 0x05	; 5
    1a8e:	90 e0       	ldi	r25, 0x00	; 0
    1a90:	0e 94 e8 0c 	call	0x19d0	; 0x19d0 <print_fill>
    1a94:	08 95       	ret

00001a96 <print_left_arrow>:
	}
}

void print_left_arrow(int inverse) {
	if (!inverse) {
    1a96:	89 2b       	or	r24, r25
    1a98:	a9 f4       	brne	.+42     	; 0x1ac4 <print_left_arrow+0x2e>
		print_blank(6);
    1a9a:	86 e0       	ldi	r24, 0x06	; 6
    1a9c:	90 e0       	ldi	r25, 0x00	; 0
    1a9e:	0e 94 d1 0c 	call	0x19a2	; 0x19a2 <print_blank>
		//left-arrow

		write_data(0b00010000);
    1aa2:	80 e1       	ldi	r24, 0x10	; 16
    1aa4:	90 e0       	ldi	r25, 0x00	; 0
    1aa6:	0e 94 c2 0b 	call	0x1784	; 0x1784 <write_data>
		write_data(0b00111000);
    1aaa:	88 e3       	ldi	r24, 0x38	; 56
    1aac:	90 e0       	ldi	r25, 0x00	; 0
    1aae:	0e 94 c2 0b 	call	0x1784	; 0x1784 <write_data>
		write_data(0b01111100);
    1ab2:	8c e7       	ldi	r24, 0x7C	; 124
    1ab4:	90 e0       	ldi	r25, 0x00	; 0
    1ab6:	0e 94 c2 0b 	call	0x1784	; 0x1784 <write_data>

		print_blank(7);
    1aba:	87 e0       	ldi	r24, 0x07	; 7
    1abc:	90 e0       	ldi	r25, 0x00	; 0
    1abe:	0e 94 d1 0c 	call	0x19a2	; 0x19a2 <print_blank>
    1ac2:	08 95       	ret
	}
	else {
		print_fill(6);
    1ac4:	86 e0       	ldi	r24, 0x06	; 6
    1ac6:	90 e0       	ldi	r25, 0x00	; 0
    1ac8:	0e 94 e8 0c 	call	0x19d0	; 0x19d0 <print_fill>
		//left-arrow
		write_data(~0b00010000);
    1acc:	8f ee       	ldi	r24, 0xEF	; 239
    1ace:	9f ef       	ldi	r25, 0xFF	; 255
    1ad0:	0e 94 c2 0b 	call	0x1784	; 0x1784 <write_data>
		write_data(~0b00111000);
    1ad4:	87 ec       	ldi	r24, 0xC7	; 199
    1ad6:	9f ef       	ldi	r25, 0xFF	; 255
    1ad8:	0e 94 c2 0b 	call	0x1784	; 0x1784 <write_data>
		write_data(~0b01111100);
    1adc:	83 e8       	ldi	r24, 0x83	; 131
    1ade:	9f ef       	ldi	r25, 0xFF	; 255
    1ae0:	0e 94 c2 0b 	call	0x1784	; 0x1784 <write_data>

		print_fill(7);
    1ae4:	87 e0       	ldi	r24, 0x07	; 7
    1ae6:	90 e0       	ldi	r25, 0x00	; 0
    1ae8:	0e 94 e8 0c 	call	0x19d0	; 0x19d0 <print_fill>
    1aec:	08 95       	ret

00001aee <print_right_arrow>:
	}
}


void print_right_arrow(int inverse) {
	if (!inverse) {
    1aee:	89 2b       	or	r24, r25
    1af0:	a9 f4       	brne	.+42     	; 0x1b1c <print_right_arrow+0x2e>
		print_blank(6);
    1af2:	86 e0       	ldi	r24, 0x06	; 6
    1af4:	90 e0       	ldi	r25, 0x00	; 0
    1af6:	0e 94 d1 0c 	call	0x19a2	; 0x19a2 <print_blank>

		//right-arrow
		write_data(0b01111100);
    1afa:	8c e7       	ldi	r24, 0x7C	; 124
    1afc:	90 e0       	ldi	r25, 0x00	; 0
    1afe:	0e 94 c2 0b 	call	0x1784	; 0x1784 <write_data>
		write_data(0b00111000);
    1b02:	88 e3       	ldi	r24, 0x38	; 56
    1b04:	90 e0       	ldi	r25, 0x00	; 0
    1b06:	0e 94 c2 0b 	call	0x1784	; 0x1784 <write_data>
		write_data(0b00010000);
    1b0a:	80 e1       	ldi	r24, 0x10	; 16
    1b0c:	90 e0       	ldi	r25, 0x00	; 0
    1b0e:	0e 94 c2 0b 	call	0x1784	; 0x1784 <write_data>

		print_blank(7);
    1b12:	87 e0       	ldi	r24, 0x07	; 7
    1b14:	90 e0       	ldi	r25, 0x00	; 0
    1b16:	0e 94 d1 0c 	call	0x19a2	; 0x19a2 <print_blank>
    1b1a:	08 95       	ret
	}
	else {
		print_fill(6);
    1b1c:	86 e0       	ldi	r24, 0x06	; 6
    1b1e:	90 e0       	ldi	r25, 0x00	; 0
    1b20:	0e 94 e8 0c 	call	0x19d0	; 0x19d0 <print_fill>

		//right-arrow
		write_data(~0b01111100);
    1b24:	83 e8       	ldi	r24, 0x83	; 131
    1b26:	9f ef       	ldi	r25, 0xFF	; 255
    1b28:	0e 94 c2 0b 	call	0x1784	; 0x1784 <write_data>
		write_data(~0b00111000);
    1b2c:	87 ec       	ldi	r24, 0xC7	; 199
    1b2e:	9f ef       	ldi	r25, 0xFF	; 255
    1b30:	0e 94 c2 0b 	call	0x1784	; 0x1784 <write_data>
		write_data(~0b00010000);
    1b34:	8f ee       	ldi	r24, 0xEF	; 239
    1b36:	9f ef       	ldi	r25, 0xFF	; 255
    1b38:	0e 94 c2 0b 	call	0x1784	; 0x1784 <write_data>

		print_fill(7);
    1b3c:	87 e0       	ldi	r24, 0x07	; 7
    1b3e:	90 e0       	ldi	r25, 0x00	; 0
    1b40:	0e 94 e8 0c 	call	0x19d0	; 0x19d0 <print_fill>
    1b44:	08 95       	ret

00001b46 <print_spacebar>:
	}
}


void print_spacebar(int inverse) {
    1b46:	cf 93       	push	r28
    1b48:	df 93       	push	r29
	if (!inverse) {
    1b4a:	89 2b       	or	r24, r25
    1b4c:	d1 f4       	brne	.+52     	; 0x1b82 <print_spacebar+0x3c>
		print_blank(4);
    1b4e:	84 e0       	ldi	r24, 0x04	; 4
    1b50:	90 e0       	ldi	r25, 0x00	; 0
    1b52:	0e 94 d1 0c 	call	0x19a2	; 0x19a2 <print_blank>

		//spacebar
		write_data(0b00111000);
    1b56:	88 e3       	ldi	r24, 0x38	; 56
    1b58:	90 e0       	ldi	r25, 0x00	; 0
    1b5a:	0e 94 c2 0b 	call	0x1784	; 0x1784 <write_data>
    1b5e:	c7 e2       	ldi	r28, 0x27	; 39
    1b60:	d0 e0       	ldi	r29, 0x00	; 0
		for (int i = 0; i < 39;i++) write_data(0b00100000);
    1b62:	80 e2       	ldi	r24, 0x20	; 32
    1b64:	90 e0       	ldi	r25, 0x00	; 0
    1b66:	0e 94 c2 0b 	call	0x1784	; 0x1784 <write_data>
    1b6a:	21 97       	sbiw	r28, 0x01	; 1
    1b6c:	20 97       	sbiw	r28, 0x00	; 0
    1b6e:	c9 f7       	brne	.-14     	; 0x1b62 <print_spacebar+0x1c>
		write_data(0b00111000);
    1b70:	88 e3       	ldi	r24, 0x38	; 56
    1b72:	90 e0       	ldi	r25, 0x00	; 0
    1b74:	0e 94 c2 0b 	call	0x1784	; 0x1784 <write_data>

		print_blank(5);
    1b78:	85 e0       	ldi	r24, 0x05	; 5
    1b7a:	90 e0       	ldi	r25, 0x00	; 0
    1b7c:	0e 94 d1 0c 	call	0x19a2	; 0x19a2 <print_blank>
    1b80:	19 c0       	rjmp	.+50     	; 0x1bb4 <print_spacebar+0x6e>
	}
	else {
		print_blank(4);
    1b82:	84 e0       	ldi	r24, 0x04	; 4
    1b84:	90 e0       	ldi	r25, 0x00	; 0
    1b86:	0e 94 d1 0c 	call	0x19a2	; 0x19a2 <print_blank>

		//spacebar
		write_data(~0b00111000);
    1b8a:	87 ec       	ldi	r24, 0xC7	; 199
    1b8c:	9f ef       	ldi	r25, 0xFF	; 255
    1b8e:	0e 94 c2 0b 	call	0x1784	; 0x1784 <write_data>
    1b92:	c7 e2       	ldi	r28, 0x27	; 39
    1b94:	d0 e0       	ldi	r29, 0x00	; 0
		for (int i = 0; i < 39;i++) write_data(~0b00100000);
    1b96:	8f ed       	ldi	r24, 0xDF	; 223
    1b98:	9f ef       	ldi	r25, 0xFF	; 255
    1b9a:	0e 94 c2 0b 	call	0x1784	; 0x1784 <write_data>
    1b9e:	21 97       	sbiw	r28, 0x01	; 1
    1ba0:	20 97       	sbiw	r28, 0x00	; 0
    1ba2:	c9 f7       	brne	.-14     	; 0x1b96 <print_spacebar+0x50>
		write_data(~0b00111000);
    1ba4:	87 ec       	ldi	r24, 0xC7	; 199
    1ba6:	9f ef       	ldi	r25, 0xFF	; 255
    1ba8:	0e 94 c2 0b 	call	0x1784	; 0x1784 <write_data>

		print_blank(5);
    1bac:	85 e0       	ldi	r24, 0x05	; 5
    1bae:	90 e0       	ldi	r25, 0x00	; 0
    1bb0:	0e 94 d1 0c 	call	0x19a2	; 0x19a2 <print_blank>
	}
}
    1bb4:	df 91       	pop	r29
    1bb6:	cf 91       	pop	r28
    1bb8:	08 95       	ret

00001bba <print_options_bar>:


void print_options_bar(int shift_inverse, int space_inverse, int left_inverse,  int right_inverse) {
    1bba:	ef 92       	push	r14
    1bbc:	ff 92       	push	r15
    1bbe:	0f 93       	push	r16
    1bc0:	1f 93       	push	r17
    1bc2:	cf 93       	push	r28
    1bc4:	df 93       	push	r29
    1bc6:	7b 01       	movw	r14, r22
    1bc8:	8a 01       	movw	r16, r20
    1bca:	e9 01       	movw	r28, r18
	print_shift(shift_inverse);
    1bcc:	0e 94 ff 0c 	call	0x19fe	; 0x19fe <print_shift>
	print_spacebar(space_inverse);
    1bd0:	c7 01       	movw	r24, r14
    1bd2:	0e 94 a3 0d 	call	0x1b46	; 0x1b46 <print_spacebar>
	print_left_arrow(left_inverse);
    1bd6:	c8 01       	movw	r24, r16
    1bd8:	0e 94 4b 0d 	call	0x1a96	; 0x1a96 <print_left_arrow>
	print_right_arrow(right_inverse);
    1bdc:	ce 01       	movw	r24, r28
    1bde:	0e 94 77 0d 	call	0x1aee	; 0x1aee <print_right_arrow>
}
    1be2:	df 91       	pop	r29
    1be4:	cf 91       	pop	r28
    1be6:	1f 91       	pop	r17
    1be8:	0f 91       	pop	r16
    1bea:	ff 90       	pop	r15
    1bec:	ef 90       	pop	r14
    1bee:	08 95       	ret

00001bf0 <print_char>:

void print_char(char c, int inverse) {
	if (!inverse) {
    1bf0:	67 2b       	or	r22, r23
    1bf2:	19 f4       	brne	.+6      	; 0x1bfa <print_char+0xa>
		OLED_print_char(c);
    1bf4:	0e 94 4e 0c 	call	0x189c	; 0x189c <OLED_print_char>
    1bf8:	08 95       	ret
	}
	else {
		OLED_print_char_inverse(c);
    1bfa:	0e 94 8a 0c 	call	0x1914	; 0x1914 <OLED_print_char_inverse>
    1bfe:	08 95       	ret

00001c00 <SPI_init>:

void SPI_init(){
	//Configure interrupt0 on the ATmega162 for receiving interrupts from SPI
	//see page 160 in ATmega162
	//enable int0 on the ATmega162
	set_bit(GICR, INT0);
    1c00:	8b b7       	in	r24, 0x3b	; 59
    1c02:	80 64       	ori	r24, 0x40	; 64
    1c04:	8b bf       	out	0x3b, r24	; 59
	
	//interrupt when low
	clear_bit(MCUCR,ISC01);
    1c06:	85 b7       	in	r24, 0x35	; 53
    1c08:	8d 7f       	andi	r24, 0xFD	; 253
    1c0a:	85 bf       	out	0x35, r24	; 53
	clear_bit(MCUCR, ISC00);
    1c0c:	85 b7       	in	r24, 0x35	; 53
    1c0e:	8e 7f       	andi	r24, 0xFE	; 254
    1c10:	85 bf       	out	0x35, r24	; 53
	

	//set mosi, sck, ss as output, others as input
	set_bit(DDRB, MOSI);
    1c12:	bd 9a       	sbi	0x17, 5	; 23
	set_bit(DDRB, SCK);
    1c14:	bf 9a       	sbi	0x17, 7	; 23
	set_bit(DDRB, SS);
    1c16:	bc 9a       	sbi	0x17, 4	; 23
	
	
	//set ATmega as master
	set_bit(SPCR, MSTR);
    1c18:	6c 9a       	sbi	0x0d, 4	; 13
	
	//enable SPI
	set_bit(SPCR, SPE);
    1c1a:	6e 9a       	sbi	0x0d, 6	; 13
	
	//set clock to f_osc/16
	set_bit(SPCR, SPR0);
    1c1c:	68 9a       	sbi	0x0d, 0	; 13
	clear_bit(SPCR,SPR1);
    1c1e:	69 98       	cbi	0x0d, 1	; 13
	clear_bit(SPCR, SPI2X);
    1c20:	68 98       	cbi	0x0d, 0	; 13
    1c22:	08 95       	ret

00001c24 <SPI_send>:
}


void SPI_send(uint8_t data){
	//Start transmission
	SPDR = data;		
    1c24:	8f b9       	out	0x0f, r24	; 15
	//wait for transmission complete SPSR: register with SPIF flag, SPIF: bit set to 1 when data is read
	loop_until_bit_is_set(SPSR, SPIF);
    1c26:	77 9b       	sbis	0x0e, 7	; 14
    1c28:	fe cf       	rjmp	.-4      	; 0x1c26 <SPI_send+0x2>
}
    1c2a:	08 95       	ret

00001c2c <SPI_read>:


char SPI_read(){
	//must send a dummy bit to receive data
	SPI_send(0);
    1c2c:	80 e0       	ldi	r24, 0x00	; 0
    1c2e:	0e 94 12 0e 	call	0x1c24	; 0x1c24 <SPI_send>
	
	loop_until_bit_is_set(SPSR, SPIF);
    1c32:	77 9b       	sbis	0x0e, 7	; 14
    1c34:	fe cf       	rjmp	.-4      	; 0x1c32 <SPI_read+0x6>
	char data = SPDR;
    1c36:	8f b1       	in	r24, 0x0f	; 15
	return data;
	
}
    1c38:	08 95       	ret

00001c3a <SPI_select>:
	//printf("SPI_TEST: %s\n\n", spi_read_result);
	
}

void SPI_select(){
	clear_bit(PORTB, SS);
    1c3a:	c4 98       	cbi	0x18, 4	; 24
    1c3c:	08 95       	ret

00001c3e <SPI_deselect>:
}

void SPI_deselect(){
	set_bit(PORTB, SS);
    1c3e:	c4 9a       	sbi	0x18, 4	; 24
    1c40:	08 95       	ret

00001c42 <SRAM_init>:
#include <stdio.h>


void SRAM_init(void){
	//Enable external memory interface
	set_bit(MCUCR, SRE);
    1c42:	85 b7       	in	r24, 0x35	; 53
    1c44:	80 68       	ori	r24, 0x80	; 128
    1c46:	85 bf       	out	0x35, r24	; 53
	
	//disable JTAG ports
	set_bit(SFIOR, XMM2);
    1c48:	80 b7       	in	r24, 0x30	; 48
    1c4a:	80 62       	ori	r24, 0x20	; 32
    1c4c:	80 bf       	out	0x30, r24	; 48
	clear_bit(SFIOR, XMM1);
    1c4e:	80 b7       	in	r24, 0x30	; 48
    1c50:	8f 7e       	andi	r24, 0xEF	; 239
    1c52:	80 bf       	out	0x30, r24	; 48
	clear_bit(SFIOR, XMM0);
    1c54:	80 b7       	in	r24, 0x30	; 48
    1c56:	87 7f       	andi	r24, 0xF7	; 247
    1c58:	80 bf       	out	0x30, r24	; 48
    1c5a:	08 95       	ret

00001c5c <usart_transmit_to_computer>:
}


void usart_transmit_to_computer(unsigned int data) {
	/* Wait for empty transmit buffer */
	while (!(UCSR0A & (1<<UDRE0)))
    1c5c:	5d 9b       	sbis	0x0b, 5	; 11
    1c5e:	fe cf       	rjmp	.-4      	; 0x1c5c <usart_transmit_to_computer>
	;
	
	/* Put data into buffer (sends the data) */
	UDR0 = data;
    1c60:	8c b9       	out	0x0c, r24	; 12
    1c62:	08 95       	ret

00001c64 <usart_receive_from_computer>:
}


unsigned char usart_receive_from_computer(void) {
	/* Wait for data to be received */
	while (!(UCSR0A & (1<<RXC0)))
    1c64:	5f 9b       	sbis	0x0b, 7	; 11
    1c66:	fe cf       	rjmp	.-4      	; 0x1c64 <usart_receive_from_computer>
	;
	
	/* Get and return data from buffer */
	return UDR0;
    1c68:	8c b1       	in	r24, 0x0c	; 12
}
    1c6a:	08 95       	ret

00001c6c <usart_init>:
#include <stdio.h>


void usart_init(unsigned int ubbr) {
	/* Set baud rate */
	UBRR0H = (unsigned char)(ubbr>>8);
    1c6c:	90 bd       	out	0x20, r25	; 32
	UBRR0L = (unsigned char)(ubbr);
    1c6e:	89 b9       	out	0x09, r24	; 9
	
	/* Enable receiver and transmitter */
	UCSR0B = (1<<RXEN0) | (1<<TXEN0);
    1c70:	88 e1       	ldi	r24, 0x18	; 24
    1c72:	8a b9       	out	0x0a, r24	; 10
	
	/* Set frame format: 8data, 2stop bit */
	UCSR0C = (1<<URSEL0) | (1<<USBS0) | (3<<UCSZ00);
    1c74:	8e e8       	ldi	r24, 0x8E	; 142
    1c76:	80 bd       	out	0x20, r24	; 32
	
	
	/* Enable printf-thing */
	fdevopen(usart_transmit_to_computer, usart_receive_from_computer);
    1c78:	62 e3       	ldi	r22, 0x32	; 50
    1c7a:	7e e0       	ldi	r23, 0x0E	; 14
    1c7c:	8e e2       	ldi	r24, 0x2E	; 46
    1c7e:	9e e0       	ldi	r25, 0x0E	; 14
    1c80:	0e 94 92 0f 	call	0x1f24	; 0x1f24 <fdevopen>
    1c84:	08 95       	ret

00001c86 <__divmodhi4>:
    1c86:	97 fb       	bst	r25, 7
    1c88:	07 2e       	mov	r0, r23
    1c8a:	16 f4       	brtc	.+4      	; 0x1c90 <__divmodhi4+0xa>
    1c8c:	00 94       	com	r0
    1c8e:	07 d0       	rcall	.+14     	; 0x1c9e <__divmodhi4_neg1>
    1c90:	77 fd       	sbrc	r23, 7
    1c92:	09 d0       	rcall	.+18     	; 0x1ca6 <__divmodhi4_neg2>
    1c94:	0e 94 57 0e 	call	0x1cae	; 0x1cae <__udivmodhi4>
    1c98:	07 fc       	sbrc	r0, 7
    1c9a:	05 d0       	rcall	.+10     	; 0x1ca6 <__divmodhi4_neg2>
    1c9c:	3e f4       	brtc	.+14     	; 0x1cac <__divmodhi4_exit>

00001c9e <__divmodhi4_neg1>:
    1c9e:	90 95       	com	r25
    1ca0:	81 95       	neg	r24
    1ca2:	9f 4f       	sbci	r25, 0xFF	; 255
    1ca4:	08 95       	ret

00001ca6 <__divmodhi4_neg2>:
    1ca6:	70 95       	com	r23
    1ca8:	61 95       	neg	r22
    1caa:	7f 4f       	sbci	r23, 0xFF	; 255

00001cac <__divmodhi4_exit>:
    1cac:	08 95       	ret

00001cae <__udivmodhi4>:
    1cae:	aa 1b       	sub	r26, r26
    1cb0:	bb 1b       	sub	r27, r27
    1cb2:	51 e1       	ldi	r21, 0x11	; 17
    1cb4:	07 c0       	rjmp	.+14     	; 0x1cc4 <__udivmodhi4_ep>

00001cb6 <__udivmodhi4_loop>:
    1cb6:	aa 1f       	adc	r26, r26
    1cb8:	bb 1f       	adc	r27, r27
    1cba:	a6 17       	cp	r26, r22
    1cbc:	b7 07       	cpc	r27, r23
    1cbe:	10 f0       	brcs	.+4      	; 0x1cc4 <__udivmodhi4_ep>
    1cc0:	a6 1b       	sub	r26, r22
    1cc2:	b7 0b       	sbc	r27, r23

00001cc4 <__udivmodhi4_ep>:
    1cc4:	88 1f       	adc	r24, r24
    1cc6:	99 1f       	adc	r25, r25
    1cc8:	5a 95       	dec	r21
    1cca:	a9 f7       	brne	.-22     	; 0x1cb6 <__udivmodhi4_loop>
    1ccc:	80 95       	com	r24
    1cce:	90 95       	com	r25
    1cd0:	bc 01       	movw	r22, r24
    1cd2:	cd 01       	movw	r24, r26
    1cd4:	08 95       	ret

00001cd6 <malloc>:
    1cd6:	cf 93       	push	r28
    1cd8:	df 93       	push	r29
    1cda:	82 30       	cpi	r24, 0x02	; 2
    1cdc:	91 05       	cpc	r25, r1
    1cde:	10 f4       	brcc	.+4      	; 0x1ce4 <malloc+0xe>
    1ce0:	82 e0       	ldi	r24, 0x02	; 2
    1ce2:	90 e0       	ldi	r25, 0x00	; 0
    1ce4:	e0 91 e0 03 	lds	r30, 0x03E0
    1ce8:	f0 91 e1 03 	lds	r31, 0x03E1
    1cec:	20 e0       	ldi	r18, 0x00	; 0
    1cee:	30 e0       	ldi	r19, 0x00	; 0
    1cf0:	a0 e0       	ldi	r26, 0x00	; 0
    1cf2:	b0 e0       	ldi	r27, 0x00	; 0
    1cf4:	30 97       	sbiw	r30, 0x00	; 0
    1cf6:	39 f1       	breq	.+78     	; 0x1d46 <malloc+0x70>
    1cf8:	40 81       	ld	r20, Z
    1cfa:	51 81       	ldd	r21, Z+1	; 0x01
    1cfc:	48 17       	cp	r20, r24
    1cfe:	59 07       	cpc	r21, r25
    1d00:	b8 f0       	brcs	.+46     	; 0x1d30 <malloc+0x5a>
    1d02:	48 17       	cp	r20, r24
    1d04:	59 07       	cpc	r21, r25
    1d06:	71 f4       	brne	.+28     	; 0x1d24 <malloc+0x4e>
    1d08:	82 81       	ldd	r24, Z+2	; 0x02
    1d0a:	93 81       	ldd	r25, Z+3	; 0x03
    1d0c:	10 97       	sbiw	r26, 0x00	; 0
    1d0e:	29 f0       	breq	.+10     	; 0x1d1a <malloc+0x44>
    1d10:	13 96       	adiw	r26, 0x03	; 3
    1d12:	9c 93       	st	X, r25
    1d14:	8e 93       	st	-X, r24
    1d16:	12 97       	sbiw	r26, 0x02	; 2
    1d18:	2c c0       	rjmp	.+88     	; 0x1d72 <malloc+0x9c>
    1d1a:	90 93 e1 03 	sts	0x03E1, r25
    1d1e:	80 93 e0 03 	sts	0x03E0, r24
    1d22:	27 c0       	rjmp	.+78     	; 0x1d72 <malloc+0x9c>
    1d24:	21 15       	cp	r18, r1
    1d26:	31 05       	cpc	r19, r1
    1d28:	31 f0       	breq	.+12     	; 0x1d36 <malloc+0x60>
    1d2a:	42 17       	cp	r20, r18
    1d2c:	53 07       	cpc	r21, r19
    1d2e:	18 f0       	brcs	.+6      	; 0x1d36 <malloc+0x60>
    1d30:	a9 01       	movw	r20, r18
    1d32:	db 01       	movw	r26, r22
    1d34:	01 c0       	rjmp	.+2      	; 0x1d38 <malloc+0x62>
    1d36:	ef 01       	movw	r28, r30
    1d38:	9a 01       	movw	r18, r20
    1d3a:	bd 01       	movw	r22, r26
    1d3c:	df 01       	movw	r26, r30
    1d3e:	02 80       	ldd	r0, Z+2	; 0x02
    1d40:	f3 81       	ldd	r31, Z+3	; 0x03
    1d42:	e0 2d       	mov	r30, r0
    1d44:	d7 cf       	rjmp	.-82     	; 0x1cf4 <malloc+0x1e>
    1d46:	21 15       	cp	r18, r1
    1d48:	31 05       	cpc	r19, r1
    1d4a:	f9 f0       	breq	.+62     	; 0x1d8a <malloc+0xb4>
    1d4c:	28 1b       	sub	r18, r24
    1d4e:	39 0b       	sbc	r19, r25
    1d50:	24 30       	cpi	r18, 0x04	; 4
    1d52:	31 05       	cpc	r19, r1
    1d54:	80 f4       	brcc	.+32     	; 0x1d76 <malloc+0xa0>
    1d56:	8a 81       	ldd	r24, Y+2	; 0x02
    1d58:	9b 81       	ldd	r25, Y+3	; 0x03
    1d5a:	61 15       	cp	r22, r1
    1d5c:	71 05       	cpc	r23, r1
    1d5e:	21 f0       	breq	.+8      	; 0x1d68 <malloc+0x92>
    1d60:	fb 01       	movw	r30, r22
    1d62:	93 83       	std	Z+3, r25	; 0x03
    1d64:	82 83       	std	Z+2, r24	; 0x02
    1d66:	04 c0       	rjmp	.+8      	; 0x1d70 <malloc+0x9a>
    1d68:	90 93 e1 03 	sts	0x03E1, r25
    1d6c:	80 93 e0 03 	sts	0x03E0, r24
    1d70:	fe 01       	movw	r30, r28
    1d72:	32 96       	adiw	r30, 0x02	; 2
    1d74:	44 c0       	rjmp	.+136    	; 0x1dfe <malloc+0x128>
    1d76:	fe 01       	movw	r30, r28
    1d78:	e2 0f       	add	r30, r18
    1d7a:	f3 1f       	adc	r31, r19
    1d7c:	81 93       	st	Z+, r24
    1d7e:	91 93       	st	Z+, r25
    1d80:	22 50       	subi	r18, 0x02	; 2
    1d82:	31 09       	sbc	r19, r1
    1d84:	39 83       	std	Y+1, r19	; 0x01
    1d86:	28 83       	st	Y, r18
    1d88:	3a c0       	rjmp	.+116    	; 0x1dfe <malloc+0x128>
    1d8a:	20 91 de 03 	lds	r18, 0x03DE
    1d8e:	30 91 df 03 	lds	r19, 0x03DF
    1d92:	23 2b       	or	r18, r19
    1d94:	41 f4       	brne	.+16     	; 0x1da6 <malloc+0xd0>
    1d96:	20 91 02 01 	lds	r18, 0x0102
    1d9a:	30 91 03 01 	lds	r19, 0x0103
    1d9e:	30 93 df 03 	sts	0x03DF, r19
    1da2:	20 93 de 03 	sts	0x03DE, r18
    1da6:	20 91 00 01 	lds	r18, 0x0100
    1daa:	30 91 01 01 	lds	r19, 0x0101
    1dae:	21 15       	cp	r18, r1
    1db0:	31 05       	cpc	r19, r1
    1db2:	41 f4       	brne	.+16     	; 0x1dc4 <malloc+0xee>
    1db4:	2d b7       	in	r18, 0x3d	; 61
    1db6:	3e b7       	in	r19, 0x3e	; 62
    1db8:	40 91 04 01 	lds	r20, 0x0104
    1dbc:	50 91 05 01 	lds	r21, 0x0105
    1dc0:	24 1b       	sub	r18, r20
    1dc2:	35 0b       	sbc	r19, r21
    1dc4:	e0 91 de 03 	lds	r30, 0x03DE
    1dc8:	f0 91 df 03 	lds	r31, 0x03DF
    1dcc:	e2 17       	cp	r30, r18
    1dce:	f3 07       	cpc	r31, r19
    1dd0:	a0 f4       	brcc	.+40     	; 0x1dfa <malloc+0x124>
    1dd2:	2e 1b       	sub	r18, r30
    1dd4:	3f 0b       	sbc	r19, r31
    1dd6:	28 17       	cp	r18, r24
    1dd8:	39 07       	cpc	r19, r25
    1dda:	78 f0       	brcs	.+30     	; 0x1dfa <malloc+0x124>
    1ddc:	ac 01       	movw	r20, r24
    1dde:	4e 5f       	subi	r20, 0xFE	; 254
    1de0:	5f 4f       	sbci	r21, 0xFF	; 255
    1de2:	24 17       	cp	r18, r20
    1de4:	35 07       	cpc	r19, r21
    1de6:	48 f0       	brcs	.+18     	; 0x1dfa <malloc+0x124>
    1de8:	4e 0f       	add	r20, r30
    1dea:	5f 1f       	adc	r21, r31
    1dec:	50 93 df 03 	sts	0x03DF, r21
    1df0:	40 93 de 03 	sts	0x03DE, r20
    1df4:	81 93       	st	Z+, r24
    1df6:	91 93       	st	Z+, r25
    1df8:	02 c0       	rjmp	.+4      	; 0x1dfe <malloc+0x128>
    1dfa:	e0 e0       	ldi	r30, 0x00	; 0
    1dfc:	f0 e0       	ldi	r31, 0x00	; 0
    1dfe:	cf 01       	movw	r24, r30
    1e00:	df 91       	pop	r29
    1e02:	cf 91       	pop	r28
    1e04:	08 95       	ret

00001e06 <free>:
    1e06:	cf 93       	push	r28
    1e08:	df 93       	push	r29
    1e0a:	00 97       	sbiw	r24, 0x00	; 0
    1e0c:	09 f4       	brne	.+2      	; 0x1e10 <free+0xa>
    1e0e:	87 c0       	rjmp	.+270    	; 0x1f1e <free+0x118>
    1e10:	fc 01       	movw	r30, r24
    1e12:	32 97       	sbiw	r30, 0x02	; 2
    1e14:	13 82       	std	Z+3, r1	; 0x03
    1e16:	12 82       	std	Z+2, r1	; 0x02
    1e18:	c0 91 e0 03 	lds	r28, 0x03E0
    1e1c:	d0 91 e1 03 	lds	r29, 0x03E1
    1e20:	20 97       	sbiw	r28, 0x00	; 0
    1e22:	81 f4       	brne	.+32     	; 0x1e44 <free+0x3e>
    1e24:	20 81       	ld	r18, Z
    1e26:	31 81       	ldd	r19, Z+1	; 0x01
    1e28:	28 0f       	add	r18, r24
    1e2a:	39 1f       	adc	r19, r25
    1e2c:	80 91 de 03 	lds	r24, 0x03DE
    1e30:	90 91 df 03 	lds	r25, 0x03DF
    1e34:	82 17       	cp	r24, r18
    1e36:	93 07       	cpc	r25, r19
    1e38:	79 f5       	brne	.+94     	; 0x1e98 <free+0x92>
    1e3a:	f0 93 df 03 	sts	0x03DF, r31
    1e3e:	e0 93 de 03 	sts	0x03DE, r30
    1e42:	6d c0       	rjmp	.+218    	; 0x1f1e <free+0x118>
    1e44:	de 01       	movw	r26, r28
    1e46:	20 e0       	ldi	r18, 0x00	; 0
    1e48:	30 e0       	ldi	r19, 0x00	; 0
    1e4a:	ae 17       	cp	r26, r30
    1e4c:	bf 07       	cpc	r27, r31
    1e4e:	50 f4       	brcc	.+20     	; 0x1e64 <free+0x5e>
    1e50:	12 96       	adiw	r26, 0x02	; 2
    1e52:	4d 91       	ld	r20, X+
    1e54:	5c 91       	ld	r21, X
    1e56:	13 97       	sbiw	r26, 0x03	; 3
    1e58:	9d 01       	movw	r18, r26
    1e5a:	41 15       	cp	r20, r1
    1e5c:	51 05       	cpc	r21, r1
    1e5e:	09 f1       	breq	.+66     	; 0x1ea2 <free+0x9c>
    1e60:	da 01       	movw	r26, r20
    1e62:	f3 cf       	rjmp	.-26     	; 0x1e4a <free+0x44>
    1e64:	b3 83       	std	Z+3, r27	; 0x03
    1e66:	a2 83       	std	Z+2, r26	; 0x02
    1e68:	40 81       	ld	r20, Z
    1e6a:	51 81       	ldd	r21, Z+1	; 0x01
    1e6c:	84 0f       	add	r24, r20
    1e6e:	95 1f       	adc	r25, r21
    1e70:	8a 17       	cp	r24, r26
    1e72:	9b 07       	cpc	r25, r27
    1e74:	71 f4       	brne	.+28     	; 0x1e92 <free+0x8c>
    1e76:	8d 91       	ld	r24, X+
    1e78:	9c 91       	ld	r25, X
    1e7a:	11 97       	sbiw	r26, 0x01	; 1
    1e7c:	84 0f       	add	r24, r20
    1e7e:	95 1f       	adc	r25, r21
    1e80:	02 96       	adiw	r24, 0x02	; 2
    1e82:	91 83       	std	Z+1, r25	; 0x01
    1e84:	80 83       	st	Z, r24
    1e86:	12 96       	adiw	r26, 0x02	; 2
    1e88:	8d 91       	ld	r24, X+
    1e8a:	9c 91       	ld	r25, X
    1e8c:	13 97       	sbiw	r26, 0x03	; 3
    1e8e:	93 83       	std	Z+3, r25	; 0x03
    1e90:	82 83       	std	Z+2, r24	; 0x02
    1e92:	21 15       	cp	r18, r1
    1e94:	31 05       	cpc	r19, r1
    1e96:	29 f4       	brne	.+10     	; 0x1ea2 <free+0x9c>
    1e98:	f0 93 e1 03 	sts	0x03E1, r31
    1e9c:	e0 93 e0 03 	sts	0x03E0, r30
    1ea0:	3e c0       	rjmp	.+124    	; 0x1f1e <free+0x118>
    1ea2:	d9 01       	movw	r26, r18
    1ea4:	13 96       	adiw	r26, 0x03	; 3
    1ea6:	fc 93       	st	X, r31
    1ea8:	ee 93       	st	-X, r30
    1eaa:	12 97       	sbiw	r26, 0x02	; 2
    1eac:	4d 91       	ld	r20, X+
    1eae:	5d 91       	ld	r21, X+
    1eb0:	a4 0f       	add	r26, r20
    1eb2:	b5 1f       	adc	r27, r21
    1eb4:	ea 17       	cp	r30, r26
    1eb6:	fb 07       	cpc	r31, r27
    1eb8:	79 f4       	brne	.+30     	; 0x1ed8 <free+0xd2>
    1eba:	80 81       	ld	r24, Z
    1ebc:	91 81       	ldd	r25, Z+1	; 0x01
    1ebe:	84 0f       	add	r24, r20
    1ec0:	95 1f       	adc	r25, r21
    1ec2:	02 96       	adiw	r24, 0x02	; 2
    1ec4:	d9 01       	movw	r26, r18
    1ec6:	11 96       	adiw	r26, 0x01	; 1
    1ec8:	9c 93       	st	X, r25
    1eca:	8e 93       	st	-X, r24
    1ecc:	82 81       	ldd	r24, Z+2	; 0x02
    1ece:	93 81       	ldd	r25, Z+3	; 0x03
    1ed0:	13 96       	adiw	r26, 0x03	; 3
    1ed2:	9c 93       	st	X, r25
    1ed4:	8e 93       	st	-X, r24
    1ed6:	12 97       	sbiw	r26, 0x02	; 2
    1ed8:	e0 e0       	ldi	r30, 0x00	; 0
    1eda:	f0 e0       	ldi	r31, 0x00	; 0
    1edc:	8a 81       	ldd	r24, Y+2	; 0x02
    1ede:	9b 81       	ldd	r25, Y+3	; 0x03
    1ee0:	00 97       	sbiw	r24, 0x00	; 0
    1ee2:	19 f0       	breq	.+6      	; 0x1eea <free+0xe4>
    1ee4:	fe 01       	movw	r30, r28
    1ee6:	ec 01       	movw	r28, r24
    1ee8:	f9 cf       	rjmp	.-14     	; 0x1edc <free+0xd6>
    1eea:	ce 01       	movw	r24, r28
    1eec:	02 96       	adiw	r24, 0x02	; 2
    1eee:	28 81       	ld	r18, Y
    1ef0:	39 81       	ldd	r19, Y+1	; 0x01
    1ef2:	82 0f       	add	r24, r18
    1ef4:	93 1f       	adc	r25, r19
    1ef6:	20 91 de 03 	lds	r18, 0x03DE
    1efa:	30 91 df 03 	lds	r19, 0x03DF
    1efe:	28 17       	cp	r18, r24
    1f00:	39 07       	cpc	r19, r25
    1f02:	69 f4       	brne	.+26     	; 0x1f1e <free+0x118>
    1f04:	30 97       	sbiw	r30, 0x00	; 0
    1f06:	29 f4       	brne	.+10     	; 0x1f12 <free+0x10c>
    1f08:	10 92 e1 03 	sts	0x03E1, r1
    1f0c:	10 92 e0 03 	sts	0x03E0, r1
    1f10:	02 c0       	rjmp	.+4      	; 0x1f16 <free+0x110>
    1f12:	13 82       	std	Z+3, r1	; 0x03
    1f14:	12 82       	std	Z+2, r1	; 0x02
    1f16:	d0 93 df 03 	sts	0x03DF, r29
    1f1a:	c0 93 de 03 	sts	0x03DE, r28
    1f1e:	df 91       	pop	r29
    1f20:	cf 91       	pop	r28
    1f22:	08 95       	ret

00001f24 <fdevopen>:
    1f24:	0f 93       	push	r16
    1f26:	1f 93       	push	r17
    1f28:	cf 93       	push	r28
    1f2a:	df 93       	push	r29
    1f2c:	ec 01       	movw	r28, r24
    1f2e:	8b 01       	movw	r16, r22
    1f30:	00 97       	sbiw	r24, 0x00	; 0
    1f32:	31 f4       	brne	.+12     	; 0x1f40 <fdevopen+0x1c>
    1f34:	61 15       	cp	r22, r1
    1f36:	71 05       	cpc	r23, r1
    1f38:	19 f4       	brne	.+6      	; 0x1f40 <fdevopen+0x1c>
    1f3a:	80 e0       	ldi	r24, 0x00	; 0
    1f3c:	90 e0       	ldi	r25, 0x00	; 0
    1f3e:	38 c0       	rjmp	.+112    	; 0x1fb0 <fdevopen+0x8c>
    1f40:	6e e0       	ldi	r22, 0x0E	; 14
    1f42:	70 e0       	ldi	r23, 0x00	; 0
    1f44:	81 e0       	ldi	r24, 0x01	; 1
    1f46:	90 e0       	ldi	r25, 0x00	; 0
    1f48:	0e 94 49 12 	call	0x2492	; 0x2492 <calloc>
    1f4c:	fc 01       	movw	r30, r24
    1f4e:	00 97       	sbiw	r24, 0x00	; 0
    1f50:	a1 f3       	breq	.-24     	; 0x1f3a <fdevopen+0x16>
    1f52:	80 e8       	ldi	r24, 0x80	; 128
    1f54:	83 83       	std	Z+3, r24	; 0x03
    1f56:	01 15       	cp	r16, r1
    1f58:	11 05       	cpc	r17, r1
    1f5a:	71 f0       	breq	.+28     	; 0x1f78 <fdevopen+0x54>
    1f5c:	13 87       	std	Z+11, r17	; 0x0b
    1f5e:	02 87       	std	Z+10, r16	; 0x0a
    1f60:	81 e8       	ldi	r24, 0x81	; 129
    1f62:	83 83       	std	Z+3, r24	; 0x03
    1f64:	80 91 e2 03 	lds	r24, 0x03E2
    1f68:	90 91 e3 03 	lds	r25, 0x03E3
    1f6c:	89 2b       	or	r24, r25
    1f6e:	21 f4       	brne	.+8      	; 0x1f78 <fdevopen+0x54>
    1f70:	f0 93 e3 03 	sts	0x03E3, r31
    1f74:	e0 93 e2 03 	sts	0x03E2, r30
    1f78:	20 97       	sbiw	r28, 0x00	; 0
    1f7a:	c9 f0       	breq	.+50     	; 0x1fae <fdevopen+0x8a>
    1f7c:	d1 87       	std	Z+9, r29	; 0x09
    1f7e:	c0 87       	std	Z+8, r28	; 0x08
    1f80:	83 81       	ldd	r24, Z+3	; 0x03
    1f82:	82 60       	ori	r24, 0x02	; 2
    1f84:	83 83       	std	Z+3, r24	; 0x03
    1f86:	80 91 e4 03 	lds	r24, 0x03E4
    1f8a:	90 91 e5 03 	lds	r25, 0x03E5
    1f8e:	89 2b       	or	r24, r25
    1f90:	71 f4       	brne	.+28     	; 0x1fae <fdevopen+0x8a>
    1f92:	f0 93 e5 03 	sts	0x03E5, r31
    1f96:	e0 93 e4 03 	sts	0x03E4, r30
    1f9a:	80 91 e6 03 	lds	r24, 0x03E6
    1f9e:	90 91 e7 03 	lds	r25, 0x03E7
    1fa2:	89 2b       	or	r24, r25
    1fa4:	21 f4       	brne	.+8      	; 0x1fae <fdevopen+0x8a>
    1fa6:	f0 93 e7 03 	sts	0x03E7, r31
    1faa:	e0 93 e6 03 	sts	0x03E6, r30
    1fae:	cf 01       	movw	r24, r30
    1fb0:	df 91       	pop	r29
    1fb2:	cf 91       	pop	r28
    1fb4:	1f 91       	pop	r17
    1fb6:	0f 91       	pop	r16
    1fb8:	08 95       	ret

00001fba <fprintf>:
    1fba:	a0 e0       	ldi	r26, 0x00	; 0
    1fbc:	b0 e0       	ldi	r27, 0x00	; 0
    1fbe:	e3 ee       	ldi	r30, 0xE3	; 227
    1fc0:	ff e0       	ldi	r31, 0x0F	; 15
    1fc2:	0c 94 f0 12 	jmp	0x25e0	; 0x25e0 <__prologue_saves__+0x20>
    1fc6:	ae 01       	movw	r20, r28
    1fc8:	47 5f       	subi	r20, 0xF7	; 247
    1fca:	5f 4f       	sbci	r21, 0xFF	; 255
    1fcc:	6f 81       	ldd	r22, Y+7	; 0x07
    1fce:	78 85       	ldd	r23, Y+8	; 0x08
    1fd0:	8d 81       	ldd	r24, Y+5	; 0x05
    1fd2:	9e 81       	ldd	r25, Y+6	; 0x06
    1fd4:	0e 94 77 10 	call	0x20ee	; 0x20ee <vfprintf>
    1fd8:	e2 e0       	ldi	r30, 0x02	; 2
    1fda:	0c 94 0c 13 	jmp	0x2618	; 0x2618 <__epilogue_restores__+0x20>

00001fde <fputc>:
    1fde:	0f 93       	push	r16
    1fe0:	1f 93       	push	r17
    1fe2:	cf 93       	push	r28
    1fe4:	df 93       	push	r29
    1fe6:	18 2f       	mov	r17, r24
    1fe8:	09 2f       	mov	r16, r25
    1fea:	eb 01       	movw	r28, r22
    1fec:	8b 81       	ldd	r24, Y+3	; 0x03
    1fee:	81 fd       	sbrc	r24, 1
    1ff0:	03 c0       	rjmp	.+6      	; 0x1ff8 <fputc+0x1a>
    1ff2:	8f ef       	ldi	r24, 0xFF	; 255
    1ff4:	9f ef       	ldi	r25, 0xFF	; 255
    1ff6:	20 c0       	rjmp	.+64     	; 0x2038 <fputc+0x5a>
    1ff8:	82 ff       	sbrs	r24, 2
    1ffa:	10 c0       	rjmp	.+32     	; 0x201c <fputc+0x3e>
    1ffc:	4e 81       	ldd	r20, Y+6	; 0x06
    1ffe:	5f 81       	ldd	r21, Y+7	; 0x07
    2000:	2c 81       	ldd	r18, Y+4	; 0x04
    2002:	3d 81       	ldd	r19, Y+5	; 0x05
    2004:	42 17       	cp	r20, r18
    2006:	53 07       	cpc	r21, r19
    2008:	7c f4       	brge	.+30     	; 0x2028 <fputc+0x4a>
    200a:	e8 81       	ld	r30, Y
    200c:	f9 81       	ldd	r31, Y+1	; 0x01
    200e:	9f 01       	movw	r18, r30
    2010:	2f 5f       	subi	r18, 0xFF	; 255
    2012:	3f 4f       	sbci	r19, 0xFF	; 255
    2014:	39 83       	std	Y+1, r19	; 0x01
    2016:	28 83       	st	Y, r18
    2018:	10 83       	st	Z, r17
    201a:	06 c0       	rjmp	.+12     	; 0x2028 <fputc+0x4a>
    201c:	e8 85       	ldd	r30, Y+8	; 0x08
    201e:	f9 85       	ldd	r31, Y+9	; 0x09
    2020:	81 2f       	mov	r24, r17
    2022:	09 95       	icall
    2024:	89 2b       	or	r24, r25
    2026:	29 f7       	brne	.-54     	; 0x1ff2 <fputc+0x14>
    2028:	2e 81       	ldd	r18, Y+6	; 0x06
    202a:	3f 81       	ldd	r19, Y+7	; 0x07
    202c:	2f 5f       	subi	r18, 0xFF	; 255
    202e:	3f 4f       	sbci	r19, 0xFF	; 255
    2030:	3f 83       	std	Y+7, r19	; 0x07
    2032:	2e 83       	std	Y+6, r18	; 0x06
    2034:	81 2f       	mov	r24, r17
    2036:	90 2f       	mov	r25, r16
    2038:	df 91       	pop	r29
    203a:	cf 91       	pop	r28
    203c:	1f 91       	pop	r17
    203e:	0f 91       	pop	r16
    2040:	08 95       	ret

00002042 <fputs>:
    2042:	ef 92       	push	r14
    2044:	ff 92       	push	r15
    2046:	0f 93       	push	r16
    2048:	1f 93       	push	r17
    204a:	cf 93       	push	r28
    204c:	df 93       	push	r29
    204e:	8b 01       	movw	r16, r22
    2050:	db 01       	movw	r26, r22
    2052:	13 96       	adiw	r26, 0x03	; 3
    2054:	2c 91       	ld	r18, X
    2056:	21 ff       	sbrs	r18, 1
    2058:	16 c0       	rjmp	.+44     	; 0x2086 <fputs+0x44>
    205a:	ec 01       	movw	r28, r24
    205c:	e1 2c       	mov	r14, r1
    205e:	f1 2c       	mov	r15, r1
    2060:	89 91       	ld	r24, Y+
    2062:	88 23       	and	r24, r24
    2064:	71 f0       	breq	.+28     	; 0x2082 <fputs+0x40>
    2066:	d8 01       	movw	r26, r16
    2068:	18 96       	adiw	r26, 0x08	; 8
    206a:	ed 91       	ld	r30, X+
    206c:	fc 91       	ld	r31, X
    206e:	19 97       	sbiw	r26, 0x09	; 9
    2070:	b8 01       	movw	r22, r16
    2072:	09 95       	icall
    2074:	89 2b       	or	r24, r25
    2076:	a1 f3       	breq	.-24     	; 0x2060 <fputs+0x1e>
    2078:	ee 24       	eor	r14, r14
    207a:	ea 94       	dec	r14
    207c:	ff 24       	eor	r15, r15
    207e:	fa 94       	dec	r15
    2080:	ef cf       	rjmp	.-34     	; 0x2060 <fputs+0x1e>
    2082:	c7 01       	movw	r24, r14
    2084:	02 c0       	rjmp	.+4      	; 0x208a <fputs+0x48>
    2086:	8f ef       	ldi	r24, 0xFF	; 255
    2088:	9f ef       	ldi	r25, 0xFF	; 255
    208a:	cd b7       	in	r28, 0x3d	; 61
    208c:	de b7       	in	r29, 0x3e	; 62
    208e:	e6 e0       	ldi	r30, 0x06	; 6
    2090:	0c 94 08 13 	jmp	0x2610	; 0x2610 <__epilogue_restores__+0x18>

00002094 <puts>:
    2094:	0f 93       	push	r16
    2096:	1f 93       	push	r17
    2098:	cf 93       	push	r28
    209a:	df 93       	push	r29
    209c:	e0 91 e4 03 	lds	r30, 0x03E4
    20a0:	f0 91 e5 03 	lds	r31, 0x03E5
    20a4:	23 81       	ldd	r18, Z+3	; 0x03
    20a6:	21 ff       	sbrs	r18, 1
    20a8:	1b c0       	rjmp	.+54     	; 0x20e0 <puts+0x4c>
    20aa:	ec 01       	movw	r28, r24
    20ac:	00 e0       	ldi	r16, 0x00	; 0
    20ae:	10 e0       	ldi	r17, 0x00	; 0
    20b0:	89 91       	ld	r24, Y+
    20b2:	60 91 e4 03 	lds	r22, 0x03E4
    20b6:	70 91 e5 03 	lds	r23, 0x03E5
    20ba:	db 01       	movw	r26, r22
    20bc:	18 96       	adiw	r26, 0x08	; 8
    20be:	ed 91       	ld	r30, X+
    20c0:	fc 91       	ld	r31, X
    20c2:	19 97       	sbiw	r26, 0x09	; 9
    20c4:	88 23       	and	r24, r24
    20c6:	31 f0       	breq	.+12     	; 0x20d4 <puts+0x40>
    20c8:	09 95       	icall
    20ca:	89 2b       	or	r24, r25
    20cc:	89 f3       	breq	.-30     	; 0x20b0 <puts+0x1c>
    20ce:	0f ef       	ldi	r16, 0xFF	; 255
    20d0:	1f ef       	ldi	r17, 0xFF	; 255
    20d2:	ee cf       	rjmp	.-36     	; 0x20b0 <puts+0x1c>
    20d4:	8a e0       	ldi	r24, 0x0A	; 10
    20d6:	09 95       	icall
    20d8:	89 2b       	or	r24, r25
    20da:	11 f4       	brne	.+4      	; 0x20e0 <puts+0x4c>
    20dc:	c8 01       	movw	r24, r16
    20de:	02 c0       	rjmp	.+4      	; 0x20e4 <puts+0x50>
    20e0:	8f ef       	ldi	r24, 0xFF	; 255
    20e2:	9f ef       	ldi	r25, 0xFF	; 255
    20e4:	df 91       	pop	r29
    20e6:	cf 91       	pop	r28
    20e8:	1f 91       	pop	r17
    20ea:	0f 91       	pop	r16
    20ec:	08 95       	ret

000020ee <vfprintf>:
    20ee:	ac e0       	ldi	r26, 0x0C	; 12
    20f0:	b0 e0       	ldi	r27, 0x00	; 0
    20f2:	ed e7       	ldi	r30, 0x7D	; 125
    20f4:	f0 e1       	ldi	r31, 0x10	; 16
    20f6:	0c 94 e0 12 	jmp	0x25c0	; 0x25c0 <__prologue_saves__>
    20fa:	7c 01       	movw	r14, r24
    20fc:	6b 01       	movw	r12, r22
    20fe:	8a 01       	movw	r16, r20
    2100:	fc 01       	movw	r30, r24
    2102:	17 82       	std	Z+7, r1	; 0x07
    2104:	16 82       	std	Z+6, r1	; 0x06
    2106:	83 81       	ldd	r24, Z+3	; 0x03
    2108:	81 ff       	sbrs	r24, 1
    210a:	bd c1       	rjmp	.+890    	; 0x2486 <vfprintf+0x398>
    210c:	ce 01       	movw	r24, r28
    210e:	01 96       	adiw	r24, 0x01	; 1
    2110:	4c 01       	movw	r8, r24
    2112:	f7 01       	movw	r30, r14
    2114:	93 81       	ldd	r25, Z+3	; 0x03
    2116:	f6 01       	movw	r30, r12
    2118:	93 fd       	sbrc	r25, 3
    211a:	85 91       	lpm	r24, Z+
    211c:	93 ff       	sbrs	r25, 3
    211e:	81 91       	ld	r24, Z+
    2120:	6f 01       	movw	r12, r30
    2122:	88 23       	and	r24, r24
    2124:	09 f4       	brne	.+2      	; 0x2128 <vfprintf+0x3a>
    2126:	ab c1       	rjmp	.+854    	; 0x247e <vfprintf+0x390>
    2128:	85 32       	cpi	r24, 0x25	; 37
    212a:	39 f4       	brne	.+14     	; 0x213a <vfprintf+0x4c>
    212c:	93 fd       	sbrc	r25, 3
    212e:	85 91       	lpm	r24, Z+
    2130:	93 ff       	sbrs	r25, 3
    2132:	81 91       	ld	r24, Z+
    2134:	6f 01       	movw	r12, r30
    2136:	85 32       	cpi	r24, 0x25	; 37
    2138:	29 f4       	brne	.+10     	; 0x2144 <vfprintf+0x56>
    213a:	b7 01       	movw	r22, r14
    213c:	90 e0       	ldi	r25, 0x00	; 0
    213e:	0e 94 ef 0f 	call	0x1fde	; 0x1fde <fputc>
    2142:	e7 cf       	rjmp	.-50     	; 0x2112 <vfprintf+0x24>
    2144:	51 2c       	mov	r5, r1
    2146:	31 2c       	mov	r3, r1
    2148:	20 e0       	ldi	r18, 0x00	; 0
    214a:	20 32       	cpi	r18, 0x20	; 32
    214c:	a0 f4       	brcc	.+40     	; 0x2176 <vfprintf+0x88>
    214e:	8b 32       	cpi	r24, 0x2B	; 43
    2150:	69 f0       	breq	.+26     	; 0x216c <vfprintf+0x7e>
    2152:	30 f4       	brcc	.+12     	; 0x2160 <vfprintf+0x72>
    2154:	80 32       	cpi	r24, 0x20	; 32
    2156:	59 f0       	breq	.+22     	; 0x216e <vfprintf+0x80>
    2158:	83 32       	cpi	r24, 0x23	; 35
    215a:	69 f4       	brne	.+26     	; 0x2176 <vfprintf+0x88>
    215c:	20 61       	ori	r18, 0x10	; 16
    215e:	2c c0       	rjmp	.+88     	; 0x21b8 <vfprintf+0xca>
    2160:	8d 32       	cpi	r24, 0x2D	; 45
    2162:	39 f0       	breq	.+14     	; 0x2172 <vfprintf+0x84>
    2164:	80 33       	cpi	r24, 0x30	; 48
    2166:	39 f4       	brne	.+14     	; 0x2176 <vfprintf+0x88>
    2168:	21 60       	ori	r18, 0x01	; 1
    216a:	26 c0       	rjmp	.+76     	; 0x21b8 <vfprintf+0xca>
    216c:	22 60       	ori	r18, 0x02	; 2
    216e:	24 60       	ori	r18, 0x04	; 4
    2170:	23 c0       	rjmp	.+70     	; 0x21b8 <vfprintf+0xca>
    2172:	28 60       	ori	r18, 0x08	; 8
    2174:	21 c0       	rjmp	.+66     	; 0x21b8 <vfprintf+0xca>
    2176:	27 fd       	sbrc	r18, 7
    2178:	27 c0       	rjmp	.+78     	; 0x21c8 <vfprintf+0xda>
    217a:	30 ed       	ldi	r19, 0xD0	; 208
    217c:	38 0f       	add	r19, r24
    217e:	3a 30       	cpi	r19, 0x0A	; 10
    2180:	78 f4       	brcc	.+30     	; 0x21a0 <vfprintf+0xb2>
    2182:	26 ff       	sbrs	r18, 6
    2184:	06 c0       	rjmp	.+12     	; 0x2192 <vfprintf+0xa4>
    2186:	fa e0       	ldi	r31, 0x0A	; 10
    2188:	5f 9e       	mul	r5, r31
    218a:	30 0d       	add	r19, r0
    218c:	11 24       	eor	r1, r1
    218e:	53 2e       	mov	r5, r19
    2190:	13 c0       	rjmp	.+38     	; 0x21b8 <vfprintf+0xca>
    2192:	8a e0       	ldi	r24, 0x0A	; 10
    2194:	38 9e       	mul	r3, r24
    2196:	30 0d       	add	r19, r0
    2198:	11 24       	eor	r1, r1
    219a:	33 2e       	mov	r3, r19
    219c:	20 62       	ori	r18, 0x20	; 32
    219e:	0c c0       	rjmp	.+24     	; 0x21b8 <vfprintf+0xca>
    21a0:	8e 32       	cpi	r24, 0x2E	; 46
    21a2:	21 f4       	brne	.+8      	; 0x21ac <vfprintf+0xbe>
    21a4:	26 fd       	sbrc	r18, 6
    21a6:	6b c1       	rjmp	.+726    	; 0x247e <vfprintf+0x390>
    21a8:	20 64       	ori	r18, 0x40	; 64
    21aa:	06 c0       	rjmp	.+12     	; 0x21b8 <vfprintf+0xca>
    21ac:	8c 36       	cpi	r24, 0x6C	; 108
    21ae:	11 f4       	brne	.+4      	; 0x21b4 <vfprintf+0xc6>
    21b0:	20 68       	ori	r18, 0x80	; 128
    21b2:	02 c0       	rjmp	.+4      	; 0x21b8 <vfprintf+0xca>
    21b4:	88 36       	cpi	r24, 0x68	; 104
    21b6:	41 f4       	brne	.+16     	; 0x21c8 <vfprintf+0xda>
    21b8:	f6 01       	movw	r30, r12
    21ba:	93 fd       	sbrc	r25, 3
    21bc:	85 91       	lpm	r24, Z+
    21be:	93 ff       	sbrs	r25, 3
    21c0:	81 91       	ld	r24, Z+
    21c2:	6f 01       	movw	r12, r30
    21c4:	81 11       	cpse	r24, r1
    21c6:	c1 cf       	rjmp	.-126    	; 0x214a <vfprintf+0x5c>
    21c8:	98 2f       	mov	r25, r24
    21ca:	9f 7d       	andi	r25, 0xDF	; 223
    21cc:	95 54       	subi	r25, 0x45	; 69
    21ce:	93 30       	cpi	r25, 0x03	; 3
    21d0:	28 f4       	brcc	.+10     	; 0x21dc <vfprintf+0xee>
    21d2:	0c 5f       	subi	r16, 0xFC	; 252
    21d4:	1f 4f       	sbci	r17, 0xFF	; 255
    21d6:	ff e3       	ldi	r31, 0x3F	; 63
    21d8:	f9 83       	std	Y+1, r31	; 0x01
    21da:	0d c0       	rjmp	.+26     	; 0x21f6 <vfprintf+0x108>
    21dc:	83 36       	cpi	r24, 0x63	; 99
    21de:	31 f0       	breq	.+12     	; 0x21ec <vfprintf+0xfe>
    21e0:	83 37       	cpi	r24, 0x73	; 115
    21e2:	71 f0       	breq	.+28     	; 0x2200 <vfprintf+0x112>
    21e4:	83 35       	cpi	r24, 0x53	; 83
    21e6:	09 f0       	breq	.+2      	; 0x21ea <vfprintf+0xfc>
    21e8:	5b c0       	rjmp	.+182    	; 0x22a0 <vfprintf+0x1b2>
    21ea:	22 c0       	rjmp	.+68     	; 0x2230 <vfprintf+0x142>
    21ec:	f8 01       	movw	r30, r16
    21ee:	80 81       	ld	r24, Z
    21f0:	89 83       	std	Y+1, r24	; 0x01
    21f2:	0e 5f       	subi	r16, 0xFE	; 254
    21f4:	1f 4f       	sbci	r17, 0xFF	; 255
    21f6:	44 24       	eor	r4, r4
    21f8:	43 94       	inc	r4
    21fa:	51 2c       	mov	r5, r1
    21fc:	54 01       	movw	r10, r8
    21fe:	15 c0       	rjmp	.+42     	; 0x222a <vfprintf+0x13c>
    2200:	38 01       	movw	r6, r16
    2202:	f2 e0       	ldi	r31, 0x02	; 2
    2204:	6f 0e       	add	r6, r31
    2206:	71 1c       	adc	r7, r1
    2208:	f8 01       	movw	r30, r16
    220a:	a0 80       	ld	r10, Z
    220c:	b1 80       	ldd	r11, Z+1	; 0x01
    220e:	26 ff       	sbrs	r18, 6
    2210:	03 c0       	rjmp	.+6      	; 0x2218 <vfprintf+0x12a>
    2212:	65 2d       	mov	r22, r5
    2214:	70 e0       	ldi	r23, 0x00	; 0
    2216:	02 c0       	rjmp	.+4      	; 0x221c <vfprintf+0x12e>
    2218:	6f ef       	ldi	r22, 0xFF	; 255
    221a:	7f ef       	ldi	r23, 0xFF	; 255
    221c:	c5 01       	movw	r24, r10
    221e:	2c 87       	std	Y+12, r18	; 0x0c
    2220:	0e 94 77 12 	call	0x24ee	; 0x24ee <strnlen>
    2224:	2c 01       	movw	r4, r24
    2226:	83 01       	movw	r16, r6
    2228:	2c 85       	ldd	r18, Y+12	; 0x0c
    222a:	2f 77       	andi	r18, 0x7F	; 127
    222c:	22 2e       	mov	r2, r18
    222e:	17 c0       	rjmp	.+46     	; 0x225e <vfprintf+0x170>
    2230:	38 01       	movw	r6, r16
    2232:	f2 e0       	ldi	r31, 0x02	; 2
    2234:	6f 0e       	add	r6, r31
    2236:	71 1c       	adc	r7, r1
    2238:	f8 01       	movw	r30, r16
    223a:	a0 80       	ld	r10, Z
    223c:	b1 80       	ldd	r11, Z+1	; 0x01
    223e:	26 ff       	sbrs	r18, 6
    2240:	03 c0       	rjmp	.+6      	; 0x2248 <vfprintf+0x15a>
    2242:	65 2d       	mov	r22, r5
    2244:	70 e0       	ldi	r23, 0x00	; 0
    2246:	02 c0       	rjmp	.+4      	; 0x224c <vfprintf+0x15e>
    2248:	6f ef       	ldi	r22, 0xFF	; 255
    224a:	7f ef       	ldi	r23, 0xFF	; 255
    224c:	c5 01       	movw	r24, r10
    224e:	2c 87       	std	Y+12, r18	; 0x0c
    2250:	0e 94 65 12 	call	0x24ca	; 0x24ca <strnlen_P>
    2254:	2c 01       	movw	r4, r24
    2256:	2c 85       	ldd	r18, Y+12	; 0x0c
    2258:	20 68       	ori	r18, 0x80	; 128
    225a:	22 2e       	mov	r2, r18
    225c:	83 01       	movw	r16, r6
    225e:	23 fc       	sbrc	r2, 3
    2260:	1b c0       	rjmp	.+54     	; 0x2298 <vfprintf+0x1aa>
    2262:	83 2d       	mov	r24, r3
    2264:	90 e0       	ldi	r25, 0x00	; 0
    2266:	48 16       	cp	r4, r24
    2268:	59 06       	cpc	r5, r25
    226a:	b0 f4       	brcc	.+44     	; 0x2298 <vfprintf+0x1aa>
    226c:	b7 01       	movw	r22, r14
    226e:	80 e2       	ldi	r24, 0x20	; 32
    2270:	90 e0       	ldi	r25, 0x00	; 0
    2272:	0e 94 ef 0f 	call	0x1fde	; 0x1fde <fputc>
    2276:	3a 94       	dec	r3
    2278:	f4 cf       	rjmp	.-24     	; 0x2262 <vfprintf+0x174>
    227a:	f5 01       	movw	r30, r10
    227c:	27 fc       	sbrc	r2, 7
    227e:	85 91       	lpm	r24, Z+
    2280:	27 fe       	sbrs	r2, 7
    2282:	81 91       	ld	r24, Z+
    2284:	5f 01       	movw	r10, r30
    2286:	b7 01       	movw	r22, r14
    2288:	90 e0       	ldi	r25, 0x00	; 0
    228a:	0e 94 ef 0f 	call	0x1fde	; 0x1fde <fputc>
    228e:	31 10       	cpse	r3, r1
    2290:	3a 94       	dec	r3
    2292:	f1 e0       	ldi	r31, 0x01	; 1
    2294:	4f 1a       	sub	r4, r31
    2296:	51 08       	sbc	r5, r1
    2298:	41 14       	cp	r4, r1
    229a:	51 04       	cpc	r5, r1
    229c:	71 f7       	brne	.-36     	; 0x227a <vfprintf+0x18c>
    229e:	e5 c0       	rjmp	.+458    	; 0x246a <vfprintf+0x37c>
    22a0:	84 36       	cpi	r24, 0x64	; 100
    22a2:	11 f0       	breq	.+4      	; 0x22a8 <vfprintf+0x1ba>
    22a4:	89 36       	cpi	r24, 0x69	; 105
    22a6:	39 f5       	brne	.+78     	; 0x22f6 <vfprintf+0x208>
    22a8:	f8 01       	movw	r30, r16
    22aa:	27 ff       	sbrs	r18, 7
    22ac:	07 c0       	rjmp	.+14     	; 0x22bc <vfprintf+0x1ce>
    22ae:	60 81       	ld	r22, Z
    22b0:	71 81       	ldd	r23, Z+1	; 0x01
    22b2:	82 81       	ldd	r24, Z+2	; 0x02
    22b4:	93 81       	ldd	r25, Z+3	; 0x03
    22b6:	0c 5f       	subi	r16, 0xFC	; 252
    22b8:	1f 4f       	sbci	r17, 0xFF	; 255
    22ba:	08 c0       	rjmp	.+16     	; 0x22cc <vfprintf+0x1de>
    22bc:	60 81       	ld	r22, Z
    22be:	71 81       	ldd	r23, Z+1	; 0x01
    22c0:	88 27       	eor	r24, r24
    22c2:	77 fd       	sbrc	r23, 7
    22c4:	80 95       	com	r24
    22c6:	98 2f       	mov	r25, r24
    22c8:	0e 5f       	subi	r16, 0xFE	; 254
    22ca:	1f 4f       	sbci	r17, 0xFF	; 255
    22cc:	2f 76       	andi	r18, 0x6F	; 111
    22ce:	b2 2e       	mov	r11, r18
    22d0:	97 ff       	sbrs	r25, 7
    22d2:	09 c0       	rjmp	.+18     	; 0x22e6 <vfprintf+0x1f8>
    22d4:	90 95       	com	r25
    22d6:	80 95       	com	r24
    22d8:	70 95       	com	r23
    22da:	61 95       	neg	r22
    22dc:	7f 4f       	sbci	r23, 0xFF	; 255
    22de:	8f 4f       	sbci	r24, 0xFF	; 255
    22e0:	9f 4f       	sbci	r25, 0xFF	; 255
    22e2:	20 68       	ori	r18, 0x80	; 128
    22e4:	b2 2e       	mov	r11, r18
    22e6:	2a e0       	ldi	r18, 0x0A	; 10
    22e8:	30 e0       	ldi	r19, 0x00	; 0
    22ea:	a4 01       	movw	r20, r8
    22ec:	0e 94 82 12 	call	0x2504	; 0x2504 <__ultoa_invert>
    22f0:	a8 2e       	mov	r10, r24
    22f2:	a8 18       	sub	r10, r8
    22f4:	44 c0       	rjmp	.+136    	; 0x237e <vfprintf+0x290>
    22f6:	85 37       	cpi	r24, 0x75	; 117
    22f8:	29 f4       	brne	.+10     	; 0x2304 <vfprintf+0x216>
    22fa:	2f 7e       	andi	r18, 0xEF	; 239
    22fc:	b2 2e       	mov	r11, r18
    22fe:	2a e0       	ldi	r18, 0x0A	; 10
    2300:	30 e0       	ldi	r19, 0x00	; 0
    2302:	25 c0       	rjmp	.+74     	; 0x234e <vfprintf+0x260>
    2304:	f2 2f       	mov	r31, r18
    2306:	f9 7f       	andi	r31, 0xF9	; 249
    2308:	bf 2e       	mov	r11, r31
    230a:	8f 36       	cpi	r24, 0x6F	; 111
    230c:	c1 f0       	breq	.+48     	; 0x233e <vfprintf+0x250>
    230e:	18 f4       	brcc	.+6      	; 0x2316 <vfprintf+0x228>
    2310:	88 35       	cpi	r24, 0x58	; 88
    2312:	79 f0       	breq	.+30     	; 0x2332 <vfprintf+0x244>
    2314:	b4 c0       	rjmp	.+360    	; 0x247e <vfprintf+0x390>
    2316:	80 37       	cpi	r24, 0x70	; 112
    2318:	19 f0       	breq	.+6      	; 0x2320 <vfprintf+0x232>
    231a:	88 37       	cpi	r24, 0x78	; 120
    231c:	21 f0       	breq	.+8      	; 0x2326 <vfprintf+0x238>
    231e:	af c0       	rjmp	.+350    	; 0x247e <vfprintf+0x390>
    2320:	2f 2f       	mov	r18, r31
    2322:	20 61       	ori	r18, 0x10	; 16
    2324:	b2 2e       	mov	r11, r18
    2326:	b4 fe       	sbrs	r11, 4
    2328:	0d c0       	rjmp	.+26     	; 0x2344 <vfprintf+0x256>
    232a:	8b 2d       	mov	r24, r11
    232c:	84 60       	ori	r24, 0x04	; 4
    232e:	b8 2e       	mov	r11, r24
    2330:	09 c0       	rjmp	.+18     	; 0x2344 <vfprintf+0x256>
    2332:	24 ff       	sbrs	r18, 4
    2334:	0a c0       	rjmp	.+20     	; 0x234a <vfprintf+0x25c>
    2336:	9f 2f       	mov	r25, r31
    2338:	96 60       	ori	r25, 0x06	; 6
    233a:	b9 2e       	mov	r11, r25
    233c:	06 c0       	rjmp	.+12     	; 0x234a <vfprintf+0x25c>
    233e:	28 e0       	ldi	r18, 0x08	; 8
    2340:	30 e0       	ldi	r19, 0x00	; 0
    2342:	05 c0       	rjmp	.+10     	; 0x234e <vfprintf+0x260>
    2344:	20 e1       	ldi	r18, 0x10	; 16
    2346:	30 e0       	ldi	r19, 0x00	; 0
    2348:	02 c0       	rjmp	.+4      	; 0x234e <vfprintf+0x260>
    234a:	20 e1       	ldi	r18, 0x10	; 16
    234c:	32 e0       	ldi	r19, 0x02	; 2
    234e:	f8 01       	movw	r30, r16
    2350:	b7 fe       	sbrs	r11, 7
    2352:	07 c0       	rjmp	.+14     	; 0x2362 <vfprintf+0x274>
    2354:	60 81       	ld	r22, Z
    2356:	71 81       	ldd	r23, Z+1	; 0x01
    2358:	82 81       	ldd	r24, Z+2	; 0x02
    235a:	93 81       	ldd	r25, Z+3	; 0x03
    235c:	0c 5f       	subi	r16, 0xFC	; 252
    235e:	1f 4f       	sbci	r17, 0xFF	; 255
    2360:	06 c0       	rjmp	.+12     	; 0x236e <vfprintf+0x280>
    2362:	60 81       	ld	r22, Z
    2364:	71 81       	ldd	r23, Z+1	; 0x01
    2366:	80 e0       	ldi	r24, 0x00	; 0
    2368:	90 e0       	ldi	r25, 0x00	; 0
    236a:	0e 5f       	subi	r16, 0xFE	; 254
    236c:	1f 4f       	sbci	r17, 0xFF	; 255
    236e:	a4 01       	movw	r20, r8
    2370:	0e 94 82 12 	call	0x2504	; 0x2504 <__ultoa_invert>
    2374:	a8 2e       	mov	r10, r24
    2376:	a8 18       	sub	r10, r8
    2378:	fb 2d       	mov	r31, r11
    237a:	ff 77       	andi	r31, 0x7F	; 127
    237c:	bf 2e       	mov	r11, r31
    237e:	b6 fe       	sbrs	r11, 6
    2380:	0b c0       	rjmp	.+22     	; 0x2398 <vfprintf+0x2aa>
    2382:	2b 2d       	mov	r18, r11
    2384:	2e 7f       	andi	r18, 0xFE	; 254
    2386:	a5 14       	cp	r10, r5
    2388:	50 f4       	brcc	.+20     	; 0x239e <vfprintf+0x2b0>
    238a:	b4 fe       	sbrs	r11, 4
    238c:	0a c0       	rjmp	.+20     	; 0x23a2 <vfprintf+0x2b4>
    238e:	b2 fc       	sbrc	r11, 2
    2390:	08 c0       	rjmp	.+16     	; 0x23a2 <vfprintf+0x2b4>
    2392:	2b 2d       	mov	r18, r11
    2394:	2e 7e       	andi	r18, 0xEE	; 238
    2396:	05 c0       	rjmp	.+10     	; 0x23a2 <vfprintf+0x2b4>
    2398:	7a 2c       	mov	r7, r10
    239a:	2b 2d       	mov	r18, r11
    239c:	03 c0       	rjmp	.+6      	; 0x23a4 <vfprintf+0x2b6>
    239e:	7a 2c       	mov	r7, r10
    23a0:	01 c0       	rjmp	.+2      	; 0x23a4 <vfprintf+0x2b6>
    23a2:	75 2c       	mov	r7, r5
    23a4:	24 ff       	sbrs	r18, 4
    23a6:	0d c0       	rjmp	.+26     	; 0x23c2 <vfprintf+0x2d4>
    23a8:	fe 01       	movw	r30, r28
    23aa:	ea 0d       	add	r30, r10
    23ac:	f1 1d       	adc	r31, r1
    23ae:	80 81       	ld	r24, Z
    23b0:	80 33       	cpi	r24, 0x30	; 48
    23b2:	11 f4       	brne	.+4      	; 0x23b8 <vfprintf+0x2ca>
    23b4:	29 7e       	andi	r18, 0xE9	; 233
    23b6:	09 c0       	rjmp	.+18     	; 0x23ca <vfprintf+0x2dc>
    23b8:	22 ff       	sbrs	r18, 2
    23ba:	06 c0       	rjmp	.+12     	; 0x23c8 <vfprintf+0x2da>
    23bc:	73 94       	inc	r7
    23be:	73 94       	inc	r7
    23c0:	04 c0       	rjmp	.+8      	; 0x23ca <vfprintf+0x2dc>
    23c2:	82 2f       	mov	r24, r18
    23c4:	86 78       	andi	r24, 0x86	; 134
    23c6:	09 f0       	breq	.+2      	; 0x23ca <vfprintf+0x2dc>
    23c8:	73 94       	inc	r7
    23ca:	23 fd       	sbrc	r18, 3
    23cc:	13 c0       	rjmp	.+38     	; 0x23f4 <vfprintf+0x306>
    23ce:	20 ff       	sbrs	r18, 0
    23d0:	06 c0       	rjmp	.+12     	; 0x23de <vfprintf+0x2f0>
    23d2:	5a 2c       	mov	r5, r10
    23d4:	73 14       	cp	r7, r3
    23d6:	18 f4       	brcc	.+6      	; 0x23de <vfprintf+0x2f0>
    23d8:	53 0c       	add	r5, r3
    23da:	57 18       	sub	r5, r7
    23dc:	73 2c       	mov	r7, r3
    23de:	73 14       	cp	r7, r3
    23e0:	68 f4       	brcc	.+26     	; 0x23fc <vfprintf+0x30e>
    23e2:	b7 01       	movw	r22, r14
    23e4:	80 e2       	ldi	r24, 0x20	; 32
    23e6:	90 e0       	ldi	r25, 0x00	; 0
    23e8:	2c 87       	std	Y+12, r18	; 0x0c
    23ea:	0e 94 ef 0f 	call	0x1fde	; 0x1fde <fputc>
    23ee:	73 94       	inc	r7
    23f0:	2c 85       	ldd	r18, Y+12	; 0x0c
    23f2:	f5 cf       	rjmp	.-22     	; 0x23de <vfprintf+0x2f0>
    23f4:	73 14       	cp	r7, r3
    23f6:	10 f4       	brcc	.+4      	; 0x23fc <vfprintf+0x30e>
    23f8:	37 18       	sub	r3, r7
    23fa:	01 c0       	rjmp	.+2      	; 0x23fe <vfprintf+0x310>
    23fc:	31 2c       	mov	r3, r1
    23fe:	24 ff       	sbrs	r18, 4
    2400:	12 c0       	rjmp	.+36     	; 0x2426 <vfprintf+0x338>
    2402:	b7 01       	movw	r22, r14
    2404:	80 e3       	ldi	r24, 0x30	; 48
    2406:	90 e0       	ldi	r25, 0x00	; 0
    2408:	2c 87       	std	Y+12, r18	; 0x0c
    240a:	0e 94 ef 0f 	call	0x1fde	; 0x1fde <fputc>
    240e:	2c 85       	ldd	r18, Y+12	; 0x0c
    2410:	22 ff       	sbrs	r18, 2
    2412:	17 c0       	rjmp	.+46     	; 0x2442 <vfprintf+0x354>
    2414:	21 ff       	sbrs	r18, 1
    2416:	03 c0       	rjmp	.+6      	; 0x241e <vfprintf+0x330>
    2418:	88 e5       	ldi	r24, 0x58	; 88
    241a:	90 e0       	ldi	r25, 0x00	; 0
    241c:	02 c0       	rjmp	.+4      	; 0x2422 <vfprintf+0x334>
    241e:	88 e7       	ldi	r24, 0x78	; 120
    2420:	90 e0       	ldi	r25, 0x00	; 0
    2422:	b7 01       	movw	r22, r14
    2424:	0c c0       	rjmp	.+24     	; 0x243e <vfprintf+0x350>
    2426:	82 2f       	mov	r24, r18
    2428:	86 78       	andi	r24, 0x86	; 134
    242a:	59 f0       	breq	.+22     	; 0x2442 <vfprintf+0x354>
    242c:	21 fd       	sbrc	r18, 1
    242e:	02 c0       	rjmp	.+4      	; 0x2434 <vfprintf+0x346>
    2430:	80 e2       	ldi	r24, 0x20	; 32
    2432:	01 c0       	rjmp	.+2      	; 0x2436 <vfprintf+0x348>
    2434:	8b e2       	ldi	r24, 0x2B	; 43
    2436:	27 fd       	sbrc	r18, 7
    2438:	8d e2       	ldi	r24, 0x2D	; 45
    243a:	b7 01       	movw	r22, r14
    243c:	90 e0       	ldi	r25, 0x00	; 0
    243e:	0e 94 ef 0f 	call	0x1fde	; 0x1fde <fputc>
    2442:	a5 14       	cp	r10, r5
    2444:	38 f4       	brcc	.+14     	; 0x2454 <vfprintf+0x366>
    2446:	b7 01       	movw	r22, r14
    2448:	80 e3       	ldi	r24, 0x30	; 48
    244a:	90 e0       	ldi	r25, 0x00	; 0
    244c:	0e 94 ef 0f 	call	0x1fde	; 0x1fde <fputc>
    2450:	5a 94       	dec	r5
    2452:	f7 cf       	rjmp	.-18     	; 0x2442 <vfprintf+0x354>
    2454:	aa 94       	dec	r10
    2456:	f4 01       	movw	r30, r8
    2458:	ea 0d       	add	r30, r10
    245a:	f1 1d       	adc	r31, r1
    245c:	80 81       	ld	r24, Z
    245e:	b7 01       	movw	r22, r14
    2460:	90 e0       	ldi	r25, 0x00	; 0
    2462:	0e 94 ef 0f 	call	0x1fde	; 0x1fde <fputc>
    2466:	a1 10       	cpse	r10, r1
    2468:	f5 cf       	rjmp	.-22     	; 0x2454 <vfprintf+0x366>
    246a:	33 20       	and	r3, r3
    246c:	09 f4       	brne	.+2      	; 0x2470 <vfprintf+0x382>
    246e:	51 ce       	rjmp	.-862    	; 0x2112 <vfprintf+0x24>
    2470:	b7 01       	movw	r22, r14
    2472:	80 e2       	ldi	r24, 0x20	; 32
    2474:	90 e0       	ldi	r25, 0x00	; 0
    2476:	0e 94 ef 0f 	call	0x1fde	; 0x1fde <fputc>
    247a:	3a 94       	dec	r3
    247c:	f6 cf       	rjmp	.-20     	; 0x246a <vfprintf+0x37c>
    247e:	f7 01       	movw	r30, r14
    2480:	86 81       	ldd	r24, Z+6	; 0x06
    2482:	97 81       	ldd	r25, Z+7	; 0x07
    2484:	02 c0       	rjmp	.+4      	; 0x248a <vfprintf+0x39c>
    2486:	8f ef       	ldi	r24, 0xFF	; 255
    2488:	9f ef       	ldi	r25, 0xFF	; 255
    248a:	2c 96       	adiw	r28, 0x0c	; 12
    248c:	e2 e1       	ldi	r30, 0x12	; 18
    248e:	0c 94 fc 12 	jmp	0x25f8	; 0x25f8 <__epilogue_restores__>

00002492 <calloc>:
    2492:	0f 93       	push	r16
    2494:	1f 93       	push	r17
    2496:	cf 93       	push	r28
    2498:	df 93       	push	r29
    249a:	86 9f       	mul	r24, r22
    249c:	80 01       	movw	r16, r0
    249e:	87 9f       	mul	r24, r23
    24a0:	10 0d       	add	r17, r0
    24a2:	96 9f       	mul	r25, r22
    24a4:	10 0d       	add	r17, r0
    24a6:	11 24       	eor	r1, r1
    24a8:	c8 01       	movw	r24, r16
    24aa:	0e 94 6b 0e 	call	0x1cd6	; 0x1cd6 <malloc>
    24ae:	ec 01       	movw	r28, r24
    24b0:	00 97       	sbiw	r24, 0x00	; 0
    24b2:	29 f0       	breq	.+10     	; 0x24be <calloc+0x2c>
    24b4:	a8 01       	movw	r20, r16
    24b6:	60 e0       	ldi	r22, 0x00	; 0
    24b8:	70 e0       	ldi	r23, 0x00	; 0
    24ba:	0e 94 70 12 	call	0x24e0	; 0x24e0 <memset>
    24be:	ce 01       	movw	r24, r28
    24c0:	df 91       	pop	r29
    24c2:	cf 91       	pop	r28
    24c4:	1f 91       	pop	r17
    24c6:	0f 91       	pop	r16
    24c8:	08 95       	ret

000024ca <strnlen_P>:
    24ca:	fc 01       	movw	r30, r24
    24cc:	05 90       	lpm	r0, Z+
    24ce:	61 50       	subi	r22, 0x01	; 1
    24d0:	70 40       	sbci	r23, 0x00	; 0
    24d2:	01 10       	cpse	r0, r1
    24d4:	d8 f7       	brcc	.-10     	; 0x24cc <strnlen_P+0x2>
    24d6:	80 95       	com	r24
    24d8:	90 95       	com	r25
    24da:	8e 0f       	add	r24, r30
    24dc:	9f 1f       	adc	r25, r31
    24de:	08 95       	ret

000024e0 <memset>:
    24e0:	dc 01       	movw	r26, r24
    24e2:	01 c0       	rjmp	.+2      	; 0x24e6 <memset+0x6>
    24e4:	6d 93       	st	X+, r22
    24e6:	41 50       	subi	r20, 0x01	; 1
    24e8:	50 40       	sbci	r21, 0x00	; 0
    24ea:	e0 f7       	brcc	.-8      	; 0x24e4 <memset+0x4>
    24ec:	08 95       	ret

000024ee <strnlen>:
    24ee:	fc 01       	movw	r30, r24
    24f0:	61 50       	subi	r22, 0x01	; 1
    24f2:	70 40       	sbci	r23, 0x00	; 0
    24f4:	01 90       	ld	r0, Z+
    24f6:	01 10       	cpse	r0, r1
    24f8:	d8 f7       	brcc	.-10     	; 0x24f0 <strnlen+0x2>
    24fa:	80 95       	com	r24
    24fc:	90 95       	com	r25
    24fe:	8e 0f       	add	r24, r30
    2500:	9f 1f       	adc	r25, r31
    2502:	08 95       	ret

00002504 <__ultoa_invert>:
    2504:	fa 01       	movw	r30, r20
    2506:	aa 27       	eor	r26, r26
    2508:	28 30       	cpi	r18, 0x08	; 8
    250a:	51 f1       	breq	.+84     	; 0x2560 <__ultoa_invert+0x5c>
    250c:	20 31       	cpi	r18, 0x10	; 16
    250e:	81 f1       	breq	.+96     	; 0x2570 <__ultoa_invert+0x6c>
    2510:	e8 94       	clt
    2512:	6f 93       	push	r22
    2514:	6e 7f       	andi	r22, 0xFE	; 254
    2516:	6e 5f       	subi	r22, 0xFE	; 254
    2518:	7f 4f       	sbci	r23, 0xFF	; 255
    251a:	8f 4f       	sbci	r24, 0xFF	; 255
    251c:	9f 4f       	sbci	r25, 0xFF	; 255
    251e:	af 4f       	sbci	r26, 0xFF	; 255
    2520:	b1 e0       	ldi	r27, 0x01	; 1
    2522:	3e d0       	rcall	.+124    	; 0x25a0 <__ultoa_invert+0x9c>
    2524:	b4 e0       	ldi	r27, 0x04	; 4
    2526:	3c d0       	rcall	.+120    	; 0x25a0 <__ultoa_invert+0x9c>
    2528:	67 0f       	add	r22, r23
    252a:	78 1f       	adc	r23, r24
    252c:	89 1f       	adc	r24, r25
    252e:	9a 1f       	adc	r25, r26
    2530:	a1 1d       	adc	r26, r1
    2532:	68 0f       	add	r22, r24
    2534:	79 1f       	adc	r23, r25
    2536:	8a 1f       	adc	r24, r26
    2538:	91 1d       	adc	r25, r1
    253a:	a1 1d       	adc	r26, r1
    253c:	6a 0f       	add	r22, r26
    253e:	71 1d       	adc	r23, r1
    2540:	81 1d       	adc	r24, r1
    2542:	91 1d       	adc	r25, r1
    2544:	a1 1d       	adc	r26, r1
    2546:	20 d0       	rcall	.+64     	; 0x2588 <__ultoa_invert+0x84>
    2548:	09 f4       	brne	.+2      	; 0x254c <__ultoa_invert+0x48>
    254a:	68 94       	set
    254c:	3f 91       	pop	r19
    254e:	2a e0       	ldi	r18, 0x0A	; 10
    2550:	26 9f       	mul	r18, r22
    2552:	11 24       	eor	r1, r1
    2554:	30 19       	sub	r19, r0
    2556:	30 5d       	subi	r19, 0xD0	; 208
    2558:	31 93       	st	Z+, r19
    255a:	de f6       	brtc	.-74     	; 0x2512 <__ultoa_invert+0xe>
    255c:	cf 01       	movw	r24, r30
    255e:	08 95       	ret
    2560:	46 2f       	mov	r20, r22
    2562:	47 70       	andi	r20, 0x07	; 7
    2564:	40 5d       	subi	r20, 0xD0	; 208
    2566:	41 93       	st	Z+, r20
    2568:	b3 e0       	ldi	r27, 0x03	; 3
    256a:	0f d0       	rcall	.+30     	; 0x258a <__ultoa_invert+0x86>
    256c:	c9 f7       	brne	.-14     	; 0x2560 <__ultoa_invert+0x5c>
    256e:	f6 cf       	rjmp	.-20     	; 0x255c <__ultoa_invert+0x58>
    2570:	46 2f       	mov	r20, r22
    2572:	4f 70       	andi	r20, 0x0F	; 15
    2574:	40 5d       	subi	r20, 0xD0	; 208
    2576:	4a 33       	cpi	r20, 0x3A	; 58
    2578:	18 f0       	brcs	.+6      	; 0x2580 <__ultoa_invert+0x7c>
    257a:	49 5d       	subi	r20, 0xD9	; 217
    257c:	31 fd       	sbrc	r19, 1
    257e:	40 52       	subi	r20, 0x20	; 32
    2580:	41 93       	st	Z+, r20
    2582:	02 d0       	rcall	.+4      	; 0x2588 <__ultoa_invert+0x84>
    2584:	a9 f7       	brne	.-22     	; 0x2570 <__ultoa_invert+0x6c>
    2586:	ea cf       	rjmp	.-44     	; 0x255c <__ultoa_invert+0x58>
    2588:	b4 e0       	ldi	r27, 0x04	; 4
    258a:	a6 95       	lsr	r26
    258c:	97 95       	ror	r25
    258e:	87 95       	ror	r24
    2590:	77 95       	ror	r23
    2592:	67 95       	ror	r22
    2594:	ba 95       	dec	r27
    2596:	c9 f7       	brne	.-14     	; 0x258a <__ultoa_invert+0x86>
    2598:	00 97       	sbiw	r24, 0x00	; 0
    259a:	61 05       	cpc	r22, r1
    259c:	71 05       	cpc	r23, r1
    259e:	08 95       	ret
    25a0:	9b 01       	movw	r18, r22
    25a2:	ac 01       	movw	r20, r24
    25a4:	0a 2e       	mov	r0, r26
    25a6:	06 94       	lsr	r0
    25a8:	57 95       	ror	r21
    25aa:	47 95       	ror	r20
    25ac:	37 95       	ror	r19
    25ae:	27 95       	ror	r18
    25b0:	ba 95       	dec	r27
    25b2:	c9 f7       	brne	.-14     	; 0x25a6 <__ultoa_invert+0xa2>
    25b4:	62 0f       	add	r22, r18
    25b6:	73 1f       	adc	r23, r19
    25b8:	84 1f       	adc	r24, r20
    25ba:	95 1f       	adc	r25, r21
    25bc:	a0 1d       	adc	r26, r0
    25be:	08 95       	ret

000025c0 <__prologue_saves__>:
    25c0:	2f 92       	push	r2
    25c2:	3f 92       	push	r3
    25c4:	4f 92       	push	r4
    25c6:	5f 92       	push	r5
    25c8:	6f 92       	push	r6
    25ca:	7f 92       	push	r7
    25cc:	8f 92       	push	r8
    25ce:	9f 92       	push	r9
    25d0:	af 92       	push	r10
    25d2:	bf 92       	push	r11
    25d4:	cf 92       	push	r12
    25d6:	df 92       	push	r13
    25d8:	ef 92       	push	r14
    25da:	ff 92       	push	r15
    25dc:	0f 93       	push	r16
    25de:	1f 93       	push	r17
    25e0:	cf 93       	push	r28
    25e2:	df 93       	push	r29
    25e4:	cd b7       	in	r28, 0x3d	; 61
    25e6:	de b7       	in	r29, 0x3e	; 62
    25e8:	ca 1b       	sub	r28, r26
    25ea:	db 0b       	sbc	r29, r27
    25ec:	0f b6       	in	r0, 0x3f	; 63
    25ee:	f8 94       	cli
    25f0:	de bf       	out	0x3e, r29	; 62
    25f2:	0f be       	out	0x3f, r0	; 63
    25f4:	cd bf       	out	0x3d, r28	; 61
    25f6:	09 94       	ijmp

000025f8 <__epilogue_restores__>:
    25f8:	2a 88       	ldd	r2, Y+18	; 0x12
    25fa:	39 88       	ldd	r3, Y+17	; 0x11
    25fc:	48 88       	ldd	r4, Y+16	; 0x10
    25fe:	5f 84       	ldd	r5, Y+15	; 0x0f
    2600:	6e 84       	ldd	r6, Y+14	; 0x0e
    2602:	7d 84       	ldd	r7, Y+13	; 0x0d
    2604:	8c 84       	ldd	r8, Y+12	; 0x0c
    2606:	9b 84       	ldd	r9, Y+11	; 0x0b
    2608:	aa 84       	ldd	r10, Y+10	; 0x0a
    260a:	b9 84       	ldd	r11, Y+9	; 0x09
    260c:	c8 84       	ldd	r12, Y+8	; 0x08
    260e:	df 80       	ldd	r13, Y+7	; 0x07
    2610:	ee 80       	ldd	r14, Y+6	; 0x06
    2612:	fd 80       	ldd	r15, Y+5	; 0x05
    2614:	0c 81       	ldd	r16, Y+4	; 0x04
    2616:	1b 81       	ldd	r17, Y+3	; 0x03
    2618:	aa 81       	ldd	r26, Y+2	; 0x02
    261a:	b9 81       	ldd	r27, Y+1	; 0x01
    261c:	ce 0f       	add	r28, r30
    261e:	d1 1d       	adc	r29, r1
    2620:	0f b6       	in	r0, 0x3f	; 63
    2622:	f8 94       	cli
    2624:	de bf       	out	0x3e, r29	; 62
    2626:	0f be       	out	0x3f, r0	; 63
    2628:	cd bf       	out	0x3d, r28	; 61
    262a:	ed 01       	movw	r28, r26
    262c:	08 95       	ret

0000262e <_exit>:
    262e:	f8 94       	cli

00002630 <__stop_program>:
    2630:	ff cf       	rjmp	.-2      	; 0x2630 <__stop_program>
